

Microchip MPLAB XC8 Assembler V2.32 build 20210201212658 
                                                                                               Mon Jun 21 15:24:45 2021

Microchip MPLAB XC8 C Compiler v2.32 (Free license) build 20210201212658 Og1 
     1                           	processor	16F877A
     2                           	pagewidth 120
     3                           	opt	flic
     4                           	psect	idataBANK0,global,class=CODE,delta=2,noexec
     5                           	psect	nvBANK0,global,class=BANK0,space=1,delta=1,noexec
     6                           	psect	cinit,global,class=CODE,merge=1,delta=2
     7                           	psect	bssCOMMON,global,class=COMMON,space=1,delta=1,noexec
     8                           	psect	bssBANK0,global,class=BANK0,space=1,delta=1,noexec
     9                           	psect	dataBANK0,global,class=BANK0,space=1,delta=1,noexec
    10                           	psect	inittext,global,class=CODE,delta=2
    11                           	psect	cstackCOMMON,global,class=COMMON,space=1,delta=1,noexec
    12                           	psect	cstackBANK0,global,class=BANK0,space=1,delta=1,noexec
    13                           	psect	maintext,global,class=CODE,split=1,delta=2
    14                           	psect	text1,local,class=CODE,merge=1,delta=2
    15                           	psect	text2,local,class=CODE,merge=1,delta=2
    16                           	psect	text3,local,class=CODE,merge=1,delta=2
    17                           	psect	text4,local,class=CODE,merge=1,delta=2
    18                           	psect	text5,local,class=CODE,merge=1,delta=2
    19                           	psect	text6,local,class=CODE,merge=1,delta=2,group=1
    20                           	psect	text7,local,class=CODE,merge=1,delta=2,group=1
    21                           	psect	text8,local,class=CODE,merge=1,delta=2
    22                           	psect	text9,local,class=CODE,merge=1,delta=2
    23                           	psect	intentry,global,class=CODE,delta=2
    24                           	psect	text10,local,class=CODE,merge=1,delta=2
    25                           	psect	text11,local,class=CODE,merge=1,delta=2
    26                           	psect	text12,local,class=CODE,merge=1,delta=2
    27                           	psect	text13,local,class=CODE,merge=1,delta=2
    28                           	psect	text14,local,class=CODE,merge=1,delta=2
    29                           	psect	text15,local,class=CODE,merge=1,delta=2
    30                           	psect	text16,local,class=CODE,merge=1,delta=2
    31                           	psect	text17,local,class=CODE,merge=1,delta=2
    32                           	psect	text18,local,class=CODE,merge=1,delta=2
    33                           	psect	text19,local,class=CODE,merge=1,delta=2
    34                           	psect	text20,local,class=CODE,merge=1,delta=2
    35                           	psect	text21,local,class=CODE,merge=1,delta=2
    36                           	psect	text22,local,class=CODE,merge=1,delta=2
    37                           	psect	text23,local,class=CODE,merge=1,delta=2
    38                           	psect	config,global,abs,ovrld,class=CONFIG,space=4,delta=2,noexec
    39                           	dabs	1,0x7E,2
    40  0000                     
    41                           ; Version 2.20
    42                           ; Generated 12/02/2020 GMT
    43                           ; 
    44                           ; Copyright © 2020, Microchip Technology Inc. and its subsidiaries ("Microchip")
    45                           ; All rights reserved.
    46                           ; 
    47                           ; This software is developed by Microchip Technology Inc. and its subsidiaries ("Microch
      +                          ip").
    48                           ; 
    49                           ; Redistribution and use in source and binary forms, with or without modification, are
    50                           ; permitted provided that the following conditions are met:
    51                           ; 
    52                           ;     1. Redistributions of source code must retain the above copyright notice, this lis
      +                          t of
    53                           ;        conditions and the following disclaimer.
    54                           ; 
    55                           ;     2. Redistributions in binary form must reproduce the above copyright notice, this 
      +                          list
    56                           ;        of conditions and the following disclaimer in the documentation and/or other
    57                           ;        materials provided with the distribution.
    58                           ; 
    59                           ;     3. Microchip's name may not be used to endorse or promote products derived from th
      +                          is
    60                           ;        software without specific prior written permission.
    61                           ; 
    62                           ; THIS SOFTWARE IS PROVIDED BY MICROCHIP "AS IS" AND ANY EXPRESS OR IMPLIED WARRANTIES,
    63                           ; INCLUDING, BUT NOT LIMITED TO, THE IMPLIED WARRANTIES OF MERCHANTABILITY AND FITNESS F
      +                          OR
    64                           ; PURPOSE ARE DISCLAIMED.  IN NO EVENT SHALL MICROCHIP BE LIABLE FOR ANY DIRECT, INDIREC
      +                          T,
    65                           ; INCIDENTAL, SPECIAL, EXEMPLARY, OR CONSEQUENTIAL DAMAGES (INCLUDING BUT NOT LIMITED TO
    66                           ; PROCUREMENT OF SUBSTITUTE GOODS OR SERVICES; LOSS OF USE, DATA OR PROFITS; OR BUSINESS
    67                           ; INTERRUPTION) HOWSOEVER CAUSED AND ON ANY THEORY OF LIABILITY, WHETHER IN CONTRACT, ST
      +                          RICT
    68                           ; LIABILITY, OR TORT (INCLUDING NEGLIGENCE OR OTHERWISE) ARISING IN ANY WAY OUT OF THE U
      +                          SE OF
    69                           ; THIS SOFTWARE, EVEN IF ADVISED OF THE POSSIBILITY OF SUCH DAMAGE.
    70                           ; 
    71                           ; 
    72                           ; Code-generator required, PIC16F877A Definitions
    73                           ; 
    74                           ; SFR Addresses
    75  0000                     	;# 
    76  0001                     	;# 
    77  0002                     	;# 
    78  0003                     	;# 
    79  0004                     	;# 
    80  0005                     	;# 
    81  0006                     	;# 
    82  0007                     	;# 
    83  0008                     	;# 
    84  0009                     	;# 
    85  000A                     	;# 
    86  000B                     	;# 
    87  000C                     	;# 
    88  000D                     	;# 
    89  000E                     	;# 
    90  000E                     	;# 
    91  000F                     	;# 
    92  0010                     	;# 
    93  0011                     	;# 
    94  0012                     	;# 
    95  0013                     	;# 
    96  0014                     	;# 
    97  0015                     	;# 
    98  0015                     	;# 
    99  0016                     	;# 
   100  0017                     	;# 
   101  0018                     	;# 
   102  0019                     	;# 
   103  001A                     	;# 
   104  001B                     	;# 
   105  001B                     	;# 
   106  001C                     	;# 
   107  001D                     	;# 
   108  001E                     	;# 
   109  001F                     	;# 
   110  0081                     	;# 
   111  0085                     	;# 
   112  0086                     	;# 
   113  0087                     	;# 
   114  0088                     	;# 
   115  0089                     	;# 
   116  008C                     	;# 
   117  008D                     	;# 
   118  008E                     	;# 
   119  0091                     	;# 
   120  0092                     	;# 
   121  0093                     	;# 
   122  0094                     	;# 
   123  0098                     	;# 
   124  0099                     	;# 
   125  009C                     	;# 
   126  009D                     	;# 
   127  009E                     	;# 
   128  009F                     	;# 
   129  010C                     	;# 
   130  010D                     	;# 
   131  010E                     	;# 
   132  010F                     	;# 
   133  018C                     	;# 
   134  018D                     	;# 
   135  0000                     	;# 
   136  0001                     	;# 
   137  0002                     	;# 
   138  0003                     	;# 
   139  0004                     	;# 
   140  0005                     	;# 
   141  0006                     	;# 
   142  0007                     	;# 
   143  0008                     	;# 
   144  0009                     	;# 
   145  000A                     	;# 
   146  000B                     	;# 
   147  000C                     	;# 
   148  000D                     	;# 
   149  000E                     	;# 
   150  000E                     	;# 
   151  000F                     	;# 
   152  0010                     	;# 
   153  0011                     	;# 
   154  0012                     	;# 
   155  0013                     	;# 
   156  0014                     	;# 
   157  0015                     	;# 
   158  0015                     	;# 
   159  0016                     	;# 
   160  0017                     	;# 
   161  0018                     	;# 
   162  0019                     	;# 
   163  001A                     	;# 
   164  001B                     	;# 
   165  001B                     	;# 
   166  001C                     	;# 
   167  001D                     	;# 
   168  001E                     	;# 
   169  001F                     	;# 
   170  0081                     	;# 
   171  0085                     	;# 
   172  0086                     	;# 
   173  0087                     	;# 
   174  0088                     	;# 
   175  0089                     	;# 
   176  008C                     	;# 
   177  008D                     	;# 
   178  008E                     	;# 
   179  0091                     	;# 
   180  0092                     	;# 
   181  0093                     	;# 
   182  0094                     	;# 
   183  0098                     	;# 
   184  0099                     	;# 
   185  009C                     	;# 
   186  009D                     	;# 
   187  009E                     	;# 
   188  009F                     	;# 
   189  010C                     	;# 
   190  010D                     	;# 
   191  010E                     	;# 
   192  010F                     	;# 
   193  018C                     	;# 
   194  018D                     	;# 
   195                           
   196                           	psect	idataBANK0
   197  05BC                     __pidataBANK0:
   198                           
   199                           ;initializer for _LEDCode
   200  05BC  34C0               	retlw	192
   201  05BD  34F9               	retlw	249
   202  05BE  34A4               	retlw	164
   203  05BF  34B0               	retlw	176
   204  05C0  3499               	retlw	153
   205  05C1  3492               	retlw	146
   206  05C2  3482               	retlw	130
   207  05C3  34F8               	retlw	248
   208  05C4  3480               	retlw	128
   209  05C5  3490               	retlw	144
   210  05C6  34BF               	retlw	191
   211  05C7  34FF               	retlw	255
   212                           
   213                           ;initializer for _NightLight
   214  05C8  3401               	retlw	1
   215                           
   216                           ;initializer for _NightMode
   217  05C9  3401               	retlw	1
   218                           
   219                           ;initializer for _Phase2GreenTime
   220  05CA  3414               	retlw	20
   221                           
   222                           ;initializer for _Phase1GreenTime
   223  05CB  3414               	retlw	20
   224                           
   225                           	psect	nvBANK0
   226  004F                     __pnvBANK0:
   227  004F                     _TimeCount2:
   228  004F                     	ds	1
   229  0050                     _TimeCount1:
   230  0050                     	ds	1
   231  0006                     _PORTB	set	6
   232  000F                     _TMR1H	set	15
   233  000E                     _TMR1L	set	14
   234  000C                     _PIR1bits	set	12
   235  0010                     _T1CONbits	set	16
   236  000B                     _INTCONbits	set	11
   237  0001                     _TMR0	set	1
   238  0008                     _PORTD	set	8
   239  0007                     _PORTC	set	7
   240  0006                     _PORTBbits	set	6
   241  0009                     _PORTE	set	9
   242  0005                     _PORTA	set	5
   243  003F                     _RC7	set	63
   244  003E                     _RC6	set	62
   245  003D                     _RC5	set	61
   246  003C                     _RC4	set	60
   247  003B                     _RC3	set	59
   248  003A                     _RC2	set	58
   249  0039                     _RC1	set	57
   250  0038                     _RC0	set	56
   251  0089                     _TRISE	set	137
   252  0085                     _TRISA	set	133
   253  0086                     _TRISB	set	134
   254  0087                     _TRISC	set	135
   255  0088                     _TRISD	set	136
   256  009C                     _CMCON	set	156
   257  009F                     _ADCON1	set	159
   258  008C                     _PIE1bits	set	140
   259  0081                     _OPTION_REGbits	set	129
   260                           
   261                           	psect	cinit
   262  0015                     start_initialization:	
   263                           ; #config settings
   264                           
   265  0015                     __initialization:
   266                           
   267                           ; Initialize objects allocated to BANK0
   268  0015  1383               	bcf	3,7	;select IRP bank0
   269  0016  3043               	movlw	low (__pdataBANK0+16)
   270  0017  00FD               	movwf	btemp+-1
   271  0018  3005               	movlw	high __pidataBANK0
   272  0019  00FE               	movwf	btemp
   273  001A  30BC               	movlw	low __pidataBANK0
   274  001B  00FF               	movwf	btemp+1
   275  001C  3033               	movlw	low __pdataBANK0
   276  001D  0084               	movwf	4
   277  001E  120A  118A  259A  120A  118A  	fcall	init_ram0
   278                           
   279                           ; Clear objects allocated to BANK0
   280  0023  01C3               	clrf	__pbssBANK0& (0+127)
   281  0024  01C4               	clrf	(__pbssBANK0+1)& (0+127)
   282  0025  01C5               	clrf	(__pbssBANK0+2)& (0+127)
   283  0026  01C6               	clrf	(__pbssBANK0+3)& (0+127)
   284  0027  01C7               	clrf	(__pbssBANK0+4)& (0+127)
   285  0028  01C8               	clrf	(__pbssBANK0+5)& (0+127)
   286  0029  01C9               	clrf	(__pbssBANK0+6)& (0+127)
   287  002A  01CA               	clrf	(__pbssBANK0+7)& (0+127)
   288  002B  01CB               	clrf	(__pbssBANK0+8)& (0+127)
   289  002C  01CC               	clrf	(__pbssBANK0+9)& (0+127)
   290  002D  01CD               	clrf	(__pbssBANK0+10)& (0+127)
   291  002E  01CE               	clrf	(__pbssBANK0+11)& (0+127)
   292                           
   293                           ; Clear objects allocated to COMMON
   294  002F  01FC               	clrf	__pbssCOMMON& (0+127)
   295  0030  01FD               	clrf	(__pbssCOMMON+1)& (0+127)
   296  0031                     end_of_initialization:	
   297                           ;End of C runtime variable initialization code
   298                           
   299  0031                     __end_of__initialization:
   300  0031  0183               	clrf	3
   301  0032  120A  118A  2954   	ljmp	_main	;jump to C main() function
   302                           
   303                           	psect	bssCOMMON
   304  007C                     __pbssCOMMON:
   305  007C                     _CurrentState:
   306  007C                     	ds	1
   307  007D                     _CurrentLED:
   308  007D                     	ds	1
   309                           
   310                           	psect	bssBANK0
   311  0043                     __pbssBANK0:
   312  0043                     _LEDData:
   313  0043                     	ds	8
   314  004B                     _Timer1Count:
   315  004B                     	ds	2
   316  004D                     _Timer0Count:
   317  004D                     	ds	2
   318                           
   319                           	psect	dataBANK0
   320  0033                     __pdataBANK0:
   321  0033                     _LEDCode:
   322  0033                     	ds	12
   323  003F                     _NightLight:
   324  003F                     	ds	1
   325  0040                     _NightMode:
   326  0040                     	ds	1
   327  0041                     _Phase2GreenTime:
   328  0041                     	ds	1
   329  0042                     _Phase1GreenTime:
   330  0042                     	ds	1
   331                           
   332                           	psect	inittext
   333  0596                     init_fetch0:	
   334                           ;	Called with low address in FSR and high address in W
   335                           
   336  0596  087E               	movf	btemp,w
   337  0597  008A               	movwf	10
   338  0598  087F               	movf	btemp+1,w
   339  0599  0082               	movwf	2
   340  059A                     init_ram0:	
   341                           ;Called with:
   342                           ;	high address of idata address in btemp 
   343                           ;	low address of idata address in btemp+1 
   344                           ;	low address of data in FSR
   345                           ;	high address + 1 of data in btemp-1
   346                           
   347  059A  120A  118A  2596  120A  118A  	fcall	init_fetch0
   348  059F  0080               	movwf	0
   349  05A0  0A84               	incf	4,f
   350  05A1  0804               	movf	4,w
   351  05A2  067D               	xorwf	btemp+-1,w
   352  05A3  1903               	btfsc	3,2
   353  05A4  3400               	retlw	0
   354  05A5  0AFF               	incf	btemp+1,f
   355  05A6  1903               	btfsc	3,2
   356  05A7  0AFE               	incf	btemp,f
   357  05A8  2D9A               	goto	init_ram0
   358                           
   359                           	psect	cstackCOMMON
   360  0070                     __pcstackCOMMON:
   361  0070                     ?_SetLightPhase1Green:
   362  0070                     ?_SetLightPhase1Yellow:	
   363                           ; 1 bytes @ 0x0
   364                           
   365  0070                     ??_SetLightPhase1Yellow:	
   366                           ; 1 bytes @ 0x0
   367                           
   368  0070                     ?_SetLightPhase2Green:	
   369                           ; 1 bytes @ 0x0
   370                           
   371  0070                     ??_SetLightPhase2Green:	
   372                           ; 1 bytes @ 0x0
   373                           
   374  0070                     ?_SetLightPhase2Yellow:	
   375                           ; 1 bytes @ 0x0
   376                           
   377  0070                     ??_SetLightPhase2Yellow:	
   378                           ; 1 bytes @ 0x0
   379                           
   380  0070                     ?_CheckButton:	
   381                           ; 1 bytes @ 0x0
   382                           
   383  0070                     ?_ScanLED:	
   384                           ; 1 bytes @ 0x0
   385                           
   386  0070                     ??_ScanLED:	
   387                           ; 1 bytes @ 0x0
   388                           
   389  0070                     ?_DecodeNumber:	
   390                           ; 1 bytes @ 0x0
   391                           
   392  0070                     ?_SetTimePhase1Green:	
   393                           ; 1 bytes @ 0x0
   394                           
   395  0070                     ?_SetTimePhase1Yellow:	
   396                           ; 1 bytes @ 0x0
   397                           
   398  0070                     ??_SetTimePhase1Yellow:	
   399                           ; 1 bytes @ 0x0
   400                           
   401  0070                     ?_SetTimePhase2Green:	
   402                           ; 1 bytes @ 0x0
   403                           
   404  0070                     ??_SetTimePhase2Green:	
   405                           ; 1 bytes @ 0x0
   406                           
   407  0070                     ?_SetTimePhase2Yellow:	
   408                           ; 1 bytes @ 0x0
   409                           
   410  0070                     ??_SetTimePhase2Yellow:	
   411                           ; 1 bytes @ 0x0
   412                           
   413  0070                     ?_OnYellow:	
   414                           ; 1 bytes @ 0x0
   415                           
   416  0070                     ??_OnYellow:	
   417                           ; 1 bytes @ 0x0
   418                           
   419  0070                     ?_OffYellow:	
   420                           ; 1 bytes @ 0x0
   421                           
   422  0070                     ??_OffYellow:	
   423                           ; 1 bytes @ 0x0
   424                           
   425  0070                     ?_InitTimer0:	
   426                           ; 1 bytes @ 0x0
   427                           
   428  0070                     ?_InitTimer1:	
   429                           ; 1 bytes @ 0x0
   430                           
   431  0070                     ?_ISR:	
   432                           ; 1 bytes @ 0x0
   433                           
   434  0070                     ?_main:	
   435                           ; 1 bytes @ 0x0
   436                           
   437  0070                     ?i1_SetLightPhase1Green:	
   438                           ; 1 bytes @ 0x0
   439                           
   440  0070                     ??i1_SetLightPhase1Green:	
   441                           ; 1 bytes @ 0x0
   442                           
   443  0070                     ?i1_DecodeNumber:	
   444                           ; 1 bytes @ 0x0
   445                           
   446  0070                     ?i1_SetTimePhase1Green:	
   447                           ; 1 bytes @ 0x0
   448                           
   449  0070                     ??i1_SetTimePhase1Green:	
   450                           ; 1 bytes @ 0x0
   451                           
   452  0070                     ?i1___awdiv:	
   453                           ; 1 bytes @ 0x0
   454                           
   455  0070                     ?i1___awmod:	
   456                           ; 2 bytes @ 0x0
   457                           
   458  0070                     i1___awdiv@divisor:	
   459                           ; 2 bytes @ 0x0
   460                           
   461  0070                     i1___awmod@divisor:	
   462                           ; 2 bytes @ 0x0
   463                           
   464                           
   465                           ; 2 bytes @ 0x0
   466  0070                     	ds	2
   467  0072                     i1___awdiv@dividend:
   468  0072                     i1___awmod@dividend:	
   469                           ; 2 bytes @ 0x2
   470                           
   471                           
   472                           ; 2 bytes @ 0x2
   473  0072                     	ds	2
   474  0074                     ??i1___awdiv:
   475  0074                     ??i1___awmod:	
   476                           ; 1 bytes @ 0x4
   477                           
   478                           
   479                           ; 1 bytes @ 0x4
   480  0074                     	ds	1
   481  0075                     i1___awdiv@counter:
   482  0075                     i1___awmod@counter:	
   483                           ; 1 bytes @ 0x5
   484                           
   485                           
   486                           ; 1 bytes @ 0x5
   487  0075                     	ds	1
   488  0076                     i1___awdiv@sign:
   489  0076                     i1___awmod@sign:	
   490                           ; 1 bytes @ 0x6
   491                           
   492                           
   493                           ; 1 bytes @ 0x6
   494  0076                     	ds	1
   495  0077                     i1___awdiv@quotient:
   496                           
   497                           ; 2 bytes @ 0x7
   498  0077                     	ds	2
   499  0079                     ??i1_DecodeNumber:
   500                           
   501                           ; 1 bytes @ 0x9
   502  0079                     	ds	3
   503                           
   504                           	psect	cstackBANK0
   505  0020                     __pcstackBANK0:
   506  0020                     ??_ISR:
   507                           
   508                           ; 1 bytes @ 0x0
   509  0020                     	ds	5
   510  0025                     ??_SetLightPhase1Green:
   511  0025                     ??_CheckButton:	
   512                           ; 1 bytes @ 0x5
   513                           
   514  0025                     ??_SetTimePhase1Green:	
   515                           ; 1 bytes @ 0x5
   516                           
   517  0025                     ??_InitTimer0:	
   518                           ; 1 bytes @ 0x5
   519                           
   520  0025                     ??_InitTimer1:	
   521                           ; 1 bytes @ 0x5
   522                           
   523  0025                     ?___awdiv:	
   524                           ; 1 bytes @ 0x5
   525                           
   526  0025                     ?___awmod:	
   527                           ; 2 bytes @ 0x5
   528                           
   529  0025                     ___awdiv@divisor:	
   530                           ; 2 bytes @ 0x5
   531                           
   532  0025                     ___awmod@divisor:	
   533                           ; 2 bytes @ 0x5
   534                           
   535                           
   536                           ; 2 bytes @ 0x5
   537  0025                     	ds	2
   538  0027                     ___awdiv@dividend:
   539  0027                     ___awmod@dividend:	
   540                           ; 2 bytes @ 0x7
   541                           
   542                           
   543                           ; 2 bytes @ 0x7
   544  0027                     	ds	2
   545  0029                     ??___awdiv:
   546  0029                     ??___awmod:	
   547                           ; 1 bytes @ 0x9
   548                           
   549                           
   550                           ; 1 bytes @ 0x9
   551  0029                     	ds	1
   552  002A                     ___awdiv@counter:
   553  002A                     ___awmod@counter:	
   554                           ; 1 bytes @ 0xA
   555                           
   556                           
   557                           ; 1 bytes @ 0xA
   558  002A                     	ds	1
   559  002B                     ___awdiv@sign:
   560  002B                     ___awmod@sign:	
   561                           ; 1 bytes @ 0xB
   562                           
   563                           
   564                           ; 1 bytes @ 0xB
   565  002B                     	ds	1
   566  002C                     ___awdiv@quotient:
   567                           
   568                           ; 2 bytes @ 0xC
   569  002C                     	ds	2
   570  002E                     ??_DecodeNumber:
   571                           
   572                           ; 1 bytes @ 0xE
   573  002E                     	ds	3
   574  0031                     ??_main:
   575                           
   576                           ; 1 bytes @ 0x11
   577  0031                     	ds	1
   578  0032                     main@Button:
   579                           
   580                           ; 1 bytes @ 0x12
   581  0032                     	ds	1
   582                           
   583                           	psect	maintext
   584  0154                     __pmaintext:	
   585 ;;
   586 ;;Main: autosize = 0, tempsize = 1, incstack = 0, save=0
   587 ;;
   588 ;; *************** function _main *****************
   589 ;; Defined at:
   590 ;;		line 392 in file "MainCode.c"
   591 ;; Parameters:    Size  Location     Type
   592 ;;		None
   593 ;; Auto vars:     Size  Location     Type
   594 ;;  Button          1   18[BANK0 ] unsigned char 
   595 ;; Return value:  Size  Location     Type
   596 ;;                  1    wreg      void 
   597 ;; Registers used:
   598 ;;		wreg, status,2, status,0, pclath, cstack
   599 ;; Tracked objects:
   600 ;;		On entry : B00/0
   601 ;;		On exit  : 0/0
   602 ;;		Unchanged: 0/0
   603 ;; Data sizes:     COMMON   BANK0   BANK1   BANK3   BANK2
   604 ;;      Params:         0       0       0       0       0
   605 ;;      Locals:         0       1       0       0       0
   606 ;;      Temps:          0       1       0       0       0
   607 ;;      Totals:         0       2       0       0       0
   608 ;;Total ram usage:        2 bytes
   609 ;; Hardware stack levels required when called: 5
   610 ;; This function calls:
   611 ;;		_CheckButton
   612 ;;		_DecodeNumber
   613 ;;		_InitTimer0
   614 ;;		_InitTimer1
   615 ;;		_SetLightPhase1Green
   616 ;;		_SetTimePhase1Green
   617 ;; This function is called by:
   618 ;;		Startup code after reset
   619 ;; This function uses a non-reentrant model
   620 ;;
   621                           
   622                           
   623                           ;psect for function _main
   624  0154                     _main:
   625  0154                     l1754:	
   626                           ;incstack = 0
   627                           ; Regs used in _main: [wreg+status,2+status,0+pclath+cstack]
   628                           
   629  0154                     l1756:
   630                           
   631                           ;MainCode.c: 395:             LEDData[4]=10;
   632  0154  1683               	bsf	3,5	;RP0=1, select bank1
   633  0155  1303               	bcf	3,6	;RP1=0, select bank1
   634  0156  1381               	bcf	1,7	;volatile
   635  0157                     l1758:
   636                           
   637                           ;MainCode.c: 396:             LEDData[5]=10;
   638  0157  300F               	movlw	15
   639  0158  009F               	movwf	31	;volatile
   640  0159                     l1760:
   641                           
   642                           ;MainCode.c: 397:             LEDData[6]=10;
   643  0159  3007               	movlw	7
   644  015A  009C               	movwf	28	;volatile
   645                           
   646                           ;MainCode.c: 398:             LEDData[7]=10;
   647  015B  0188               	clrf	8	;volatile
   648                           
   649                           ;MainCode.c: 399:                             ;
   650  015C  0187               	clrf	7	;volatile
   651  015D                     l1762:
   652                           
   653                           ;MainCode.c: 400:             Timer0Count;
   654  015D  30C1               	movlw	193
   655  015E  0086               	movwf	6	;volatile
   656  015F                     l1764:
   657                           
   658                           ;MainCode.c: 401:             INTCONbits.TMR0IE=1;
   659  015F  0185               	clrf	5	;volatile
   660  0160                     l1766:
   661                           
   662                           ;MainCode.c: 402:         }
   663  0160  0189               	clrf	9	;volatile
   664  0161                     l1768:
   665                           
   666                           ;MainCode.c: 404:         else if(Button==3)
   667  0161  120A  118A  25A9  120A  118A  	fcall	_InitTimer1
   668  0166                     l1770:
   669                           
   670                           ;MainCode.c: 407:         }
   671  0166  3008               	movlw	8
   672  0167  1283               	bcf	3,5	;RP0=0, select bank0
   673  0168  1303               	bcf	3,6	;RP1=0, select bank0
   674  0169  00B1               	movwf	??_main
   675  016A  0831               	movf	??_main,w
   676  016B  00C3               	movwf	_LEDData
   677  016C                     l1772:
   678                           
   679                           ;MainCode.c: 408: 
   680  016C  3008               	movlw	8
   681  016D  00B1               	movwf	??_main
   682  016E  0831               	movf	??_main,w
   683  016F  00C4               	movwf	_LEDData+1
   684  0170                     l1774:
   685                           
   686                           ;MainCode.c: 409: 
   687  0170  3008               	movlw	8
   688  0171  00B1               	movwf	??_main
   689  0172  0831               	movf	??_main,w
   690  0173  00C5               	movwf	_LEDData+2
   691  0174                     l1776:
   692                           
   693                           ;MainCode.c: 410: 
   694  0174  3008               	movlw	8
   695  0175  00B1               	movwf	??_main
   696  0176  0831               	movf	??_main,w
   697  0177  00C6               	movwf	_LEDData+3
   698  0178                     l1778:
   699                           
   700                           ;MainCode.c: 411:      }
   701  0178  3008               	movlw	8
   702  0179  00B1               	movwf	??_main
   703  017A  0831               	movf	??_main,w
   704  017B  00C7               	movwf	_LEDData+4
   705  017C                     l1780:
   706                           
   707                           ;MainCode.c: 412: 
   708  017C  3008               	movlw	8
   709  017D  00B1               	movwf	??_main
   710  017E  0831               	movf	??_main,w
   711  017F  00C8               	movwf	_LEDData+5
   712  0180                     l1782:
   713                           
   714                           ;MainCode.c: 413: 
   715  0180  3008               	movlw	8
   716  0181  00B1               	movwf	??_main
   717  0182  0831               	movf	??_main,w
   718  0183  00C9               	movwf	_LEDData+6
   719  0184                     l1784:
   720                           
   721                           ;MainCode.c: 414:     return;
   722  0184  3008               	movlw	8
   723  0185  00B1               	movwf	??_main
   724  0186  0831               	movf	??_main,w
   725  0187  00CA               	movwf	_LEDData+7
   726  0188                     l1786:
   727                           
   728                           ;MainCode.c: 415: }
   729  0188  0185               	clrf	5	;volatile
   730  0189                     l1788:
   731  0189  0189               	clrf	9	;volatile
   732  018A                     l1790:
   733  018A  0186               	clrf	6	;volatile
   734  018B                     l1792:
   735  018B  120A  118A  2600  120A  118A  	fcall	_SetLightPhase1Green
   736  0190                     l1794:
   737  0190  120A  118A  25DC  120A  118A  	fcall	_SetTimePhase1Green
   738  0195                     l1796:
   739  0195  120A  118A  223F  120A  118A  	fcall	_DecodeNumber
   740  019A                     l1798:
   741  019A  01FC               	clrf	_CurrentState
   742  019B                     l1800:
   743  019B  120A  118A  25CC  120A  118A  	fcall	_InitTimer0
   744  01A0                     l1802:
   745  01A0  120A  118A  2580  120A  118A  	fcall	_CheckButton
   746  01A5  1283               	bcf	3,5	;RP0=0, select bank0
   747  01A6  1303               	bcf	3,6	;RP1=0, select bank0
   748  01A7  00B1               	movwf	??_main
   749  01A8  0831               	movf	??_main,w
   750  01A9  00B2               	movwf	main@Button
   751  01AA                     l1804:
   752  01AA  0332               	decf	main@Button,w
   753  01AB  1D03               	btfss	3,2
   754  01AC  29AE               	goto	u1321
   755  01AD  29AF               	goto	u1320
   756  01AE                     u1321:
   757  01AE  29EE               	goto	l1836
   758  01AF                     u1320:
   759  01AF                     l1806:
   760  01AF  01C0               	clrf	_NightMode
   761  01B0  0AC0               	incf	_NightMode,f
   762  01B1  128B               	bcf	11,5	;volatile
   763  01B2                     l1808:
   764  01B2  3014               	movlw	20
   765  01B3  00B1               	movwf	??_main
   766  01B4  0831               	movf	??_main,w
   767  01B5  00C2               	movwf	_Phase1GreenTime
   768  01B6  3014               	movlw	20
   769  01B7  00B1               	movwf	??_main
   770  01B8  0831               	movf	??_main,w
   771  01B9  00C1               	movwf	_Phase2GreenTime
   772  01BA                     l1810:
   773  01BA  120A  118A  2600  120A  118A  	fcall	_SetLightPhase1Green
   774  01BF                     l1812:
   775  01BF  120A  118A  25DC  120A  118A  	fcall	_SetTimePhase1Green
   776  01C4                     l1814:
   777  01C4  120A  118A  223F  120A  118A  	fcall	_DecodeNumber
   778  01C9                     l1816:
   779  01C9  01FC               	clrf	_CurrentState
   780  01CA                     l1818:
   781  01CA  300A               	movlw	10
   782  01CB  1283               	bcf	3,5	;RP0=0, select bank0
   783  01CC  1303               	bcf	3,6	;RP1=0, select bank0
   784  01CD  00B1               	movwf	??_main
   785  01CE  0831               	movf	??_main,w
   786  01CF  00C3               	movwf	_LEDData
   787  01D0                     l1820:
   788  01D0  300A               	movlw	10
   789  01D1  00B1               	movwf	??_main
   790  01D2  0831               	movf	??_main,w
   791  01D3  00C4               	movwf	_LEDData+1
   792  01D4                     l1822:
   793  01D4  300A               	movlw	10
   794  01D5  00B1               	movwf	??_main
   795  01D6  0831               	movf	??_main,w
   796  01D7  00C5               	movwf	_LEDData+2
   797  01D8                     l1824:
   798  01D8  300A               	movlw	10
   799  01D9  00B1               	movwf	??_main
   800  01DA  0831               	movf	??_main,w
   801  01DB  00C6               	movwf	_LEDData+3
   802  01DC                     l1826:
   803  01DC  300A               	movlw	10
   804  01DD  00B1               	movwf	??_main
   805  01DE  0831               	movf	??_main,w
   806  01DF  00C7               	movwf	_LEDData+4
   807  01E0                     l1828:
   808  01E0  300A               	movlw	10
   809  01E1  00B1               	movwf	??_main
   810  01E2  0831               	movf	??_main,w
   811  01E3  00C8               	movwf	_LEDData+5
   812  01E4                     l1830:
   813  01E4  300A               	movlw	10
   814  01E5  00B1               	movwf	??_main
   815  01E6  0831               	movf	??_main,w
   816  01E7  00C9               	movwf	_LEDData+6
   817  01E8                     l1832:
   818  01E8  300A               	movlw	10
   819  01E9  00B1               	movwf	??_main
   820  01EA  0831               	movf	??_main,w
   821  01EB  00CA               	movwf	_LEDData+7
   822  01EC                     l1834:
   823  01EC  168B               	bsf	11,5	;volatile
   824  01ED  29A0               	goto	l1802
   825  01EE                     l1836:
   826  01EE  3002               	movlw	2
   827  01EF  0632               	xorwf	main@Button,w
   828  01F0  1D03               	btfss	3,2
   829  01F1  29F3               	goto	u1331
   830  01F2  29F4               	goto	u1330
   831  01F3                     u1331:
   832  01F3  2A33               	goto	l1868
   833  01F4                     u1330:
   834  01F4                     l1838:
   835  01F4  01C0               	clrf	_NightMode
   836  01F5  0AC0               	incf	_NightMode,f
   837  01F6  128B               	bcf	11,5	;volatile
   838  01F7                     l1840:
   839  01F7  301E               	movlw	30
   840  01F8  00B1               	movwf	??_main
   841  01F9  0831               	movf	??_main,w
   842  01FA  00C2               	movwf	_Phase1GreenTime
   843  01FB  301E               	movlw	30
   844  01FC  00B1               	movwf	??_main
   845  01FD  0831               	movf	??_main,w
   846  01FE  00C1               	movwf	_Phase2GreenTime
   847  01FF                     l1842:
   848  01FF  120A  118A  2600  120A  118A  	fcall	_SetLightPhase1Green
   849  0204                     l1844:
   850  0204  120A  118A  25DC  120A  118A  	fcall	_SetTimePhase1Green
   851  0209                     l1846:
   852  0209  120A  118A  223F  120A  118A  	fcall	_DecodeNumber
   853  020E                     l1848:
   854  020E  01FC               	clrf	_CurrentState
   855  020F                     l1850:
   856  020F  300A               	movlw	10
   857  0210  1283               	bcf	3,5	;RP0=0, select bank0
   858  0211  1303               	bcf	3,6	;RP1=0, select bank0
   859  0212  00B1               	movwf	??_main
   860  0213  0831               	movf	??_main,w
   861  0214  00C3               	movwf	_LEDData
   862  0215                     l1852:
   863  0215  300A               	movlw	10
   864  0216  00B1               	movwf	??_main
   865  0217  0831               	movf	??_main,w
   866  0218  00C4               	movwf	_LEDData+1
   867  0219                     l1854:
   868  0219  300A               	movlw	10
   869  021A  00B1               	movwf	??_main
   870  021B  0831               	movf	??_main,w
   871  021C  00C5               	movwf	_LEDData+2
   872  021D                     l1856:
   873  021D  300A               	movlw	10
   874  021E  00B1               	movwf	??_main
   875  021F  0831               	movf	??_main,w
   876  0220  00C6               	movwf	_LEDData+3
   877  0221                     l1858:
   878  0221  300A               	movlw	10
   879  0222  00B1               	movwf	??_main
   880  0223  0831               	movf	??_main,w
   881  0224  00C7               	movwf	_LEDData+4
   882  0225                     l1860:
   883  0225  300A               	movlw	10
   884  0226  00B1               	movwf	??_main
   885  0227  0831               	movf	??_main,w
   886  0228  00C8               	movwf	_LEDData+5
   887  0229                     l1862:
   888  0229  300A               	movlw	10
   889  022A  00B1               	movwf	??_main
   890  022B  0831               	movf	??_main,w
   891  022C  00C9               	movwf	_LEDData+6
   892  022D                     l1864:
   893  022D  300A               	movlw	10
   894  022E  00B1               	movwf	??_main
   895  022F  0831               	movf	??_main,w
   896  0230  00CA               	movwf	_LEDData+7
   897  0231                     l1866:
   898  0231  168B               	bsf	11,5	;volatile
   899  0232  29A0               	goto	l1802
   900  0233                     l1868:
   901  0233  3003               	movlw	3
   902  0234  0632               	xorwf	main@Button,w
   903  0235  1D03               	btfss	3,2
   904  0236  2A38               	goto	u1341
   905  0237  2A39               	goto	u1340
   906  0238                     u1341:
   907  0238  2A3B               	goto	l170
   908  0239                     u1340:
   909  0239                     l1870:
   910  0239  01C0               	clrf	_NightMode
   911  023A  29A0               	goto	l1802
   912  023B                     l170:
   913  023B  29A0               	goto	l1802
   914  023C  120A  118A  2812   	ljmp	start
   915  023F                     __end_of_main:
   916                           
   917                           	psect	text1
   918  05DC                     __ptext1:	
   919 ;; *************** function _SetTimePhase1Green *****************
   920 ;; Defined at:
   921 ;;		line 205 in file "MainCode.c"
   922 ;; Parameters:    Size  Location     Type
   923 ;;		None
   924 ;; Auto vars:     Size  Location     Type
   925 ;;		None
   926 ;; Return value:  Size  Location     Type
   927 ;;                  1    wreg      void 
   928 ;; Registers used:
   929 ;;		wreg, status,2, status,0
   930 ;; Tracked objects:
   931 ;;		On entry : 0/0
   932 ;;		On exit  : 0/0
   933 ;;		Unchanged: 0/0
   934 ;; Data sizes:     COMMON   BANK0   BANK1   BANK3   BANK2
   935 ;;      Params:         0       0       0       0       0
   936 ;;      Locals:         0       0       0       0       0
   937 ;;      Temps:          0       1       0       0       0
   938 ;;      Totals:         0       1       0       0       0
   939 ;;Total ram usage:        1 bytes
   940 ;; Hardware stack levels used: 1
   941 ;; Hardware stack levels required when called: 3
   942 ;; This function calls:
   943 ;;		Nothing
   944 ;; This function is called by:
   945 ;;		_main
   946 ;; This function uses a non-reentrant model
   947 ;;
   948                           
   949                           
   950                           ;psect for function _SetTimePhase1Green
   951  05DC                     _SetTimePhase1Green:
   952  05DC                     l1584:	
   953                           ;incstack = 0
   954                           ; Regs used in _SetTimePhase1Green: [wreg+status,2+status,0]
   955                           
   956                           
   957                           ;MainCode.c: 207: void InitTimer1()
   958  05DC  1283               	bcf	3,5	;RP0=0, select bank0
   959  05DD  1303               	bcf	3,6	;RP1=0, select bank0
   960  05DE  0842               	movf	_Phase1GreenTime,w
   961  05DF  00A5               	movwf	??_SetTimePhase1Green
   962  05E0  0825               	movf	??_SetTimePhase1Green,w
   963  05E1  00D0               	movwf	_TimeCount1
   964  05E2                     l1586:
   965                           
   966                           ;MainCode.c: 208: {
   967  05E2  0842               	movf	_Phase1GreenTime,w
   968  05E3  3E03               	addlw	3
   969  05E4  00A5               	movwf	??_SetTimePhase1Green
   970  05E5  0825               	movf	??_SetTimePhase1Green,w
   971  05E6  00CF               	movwf	_TimeCount2
   972  05E7                     l125:
   973  05E7  0008               	return
   974  05E8                     __end_of_SetTimePhase1Green:
   975                           
   976                           	psect	text2
   977  0600                     __ptext2:	
   978 ;; *************** function _SetLightPhase1Green *****************
   979 ;; Defined at:
   980 ;;		line 90 in file "MainCode.c"
   981 ;; Parameters:    Size  Location     Type
   982 ;;		None
   983 ;; Auto vars:     Size  Location     Type
   984 ;;		None
   985 ;; Return value:  Size  Location     Type
   986 ;;                  1    wreg      void 
   987 ;; Registers used:
   988 ;;		wreg
   989 ;; Tracked objects:
   990 ;;		On entry : 0/0
   991 ;;		On exit  : 0/0
   992 ;;		Unchanged: 0/0
   993 ;; Data sizes:     COMMON   BANK0   BANK1   BANK3   BANK2
   994 ;;      Params:         0       0       0       0       0
   995 ;;      Locals:         0       0       0       0       0
   996 ;;      Temps:          0       0       0       0       0
   997 ;;      Totals:         0       0       0       0       0
   998 ;;Total ram usage:        0 bytes
   999 ;; Hardware stack levels used: 1
  1000 ;; Hardware stack levels required when called: 3
  1001 ;; This function calls:
  1002 ;;		Nothing
  1003 ;; This function is called by:
  1004 ;;		_main
  1005 ;; This function uses a non-reentrant model
  1006 ;;
  1007                           
  1008                           
  1009                           ;psect for function _SetLightPhase1Green
  1010  0600                     _SetLightPhase1Green:
  1011  0600                     l1484:	
  1012                           ;incstack = 0
  1013                           ; Regs used in _SetLightPhase1Green: [wreg]
  1014                           
  1015                           
  1016                           ;MainCode.c: 92:   {
  1017  0600  30FB               	movlw	251
  1018  0601  1283               	bcf	3,5	;RP0=0, select bank0
  1019  0602  1303               	bcf	3,6	;RP1=0, select bank0
  1020  0603  0085               	movwf	5	;volatile
  1021                           
  1022                           ;MainCode.c: 93:                    ;
  1023  0604  30FC               	movlw	252
  1024  0605  0089               	movwf	9	;volatile
  1025  0606                     l1486:
  1026                           
  1027                           ;MainCode.c: 95: 
  1028  0606  1486               	bsf	6,1	;volatile
  1029  0607                     l1488:
  1030                           
  1031                           ;MainCode.c: 96:   }
  1032  0607  1106               	bcf	6,2	;volatile
  1033  0608                     l1490:
  1034                           
  1035                           ;MainCode.c: 97: 
  1036  0608  1686               	bsf	6,5	;volatile
  1037  0609                     l1492:
  1038                           
  1039                           ;MainCode.c: 98:    return 0;
  1040  0609  1606               	bsf	6,4	;volatile
  1041  060A                     l85:
  1042  060A  0008               	return
  1043  060B                     __end_of_SetLightPhase1Green:
  1044                           
  1045                           	psect	text3
  1046  05A9                     __ptext3:	
  1047 ;; *************** function _InitTimer1 *****************
  1048 ;; Defined at:
  1049 ;;		line 275 in file "MainCode.c"
  1050 ;; Parameters:    Size  Location     Type
  1051 ;;		None
  1052 ;; Auto vars:     Size  Location     Type
  1053 ;;		None
  1054 ;; Return value:  Size  Location     Type
  1055 ;;                  1    wreg      void 
  1056 ;; Registers used:
  1057 ;;		wreg
  1058 ;; Tracked objects:
  1059 ;;		On entry : 0/0
  1060 ;;		On exit  : 0/0
  1061 ;;		Unchanged: 0/0
  1062 ;; Data sizes:     COMMON   BANK0   BANK1   BANK3   BANK2
  1063 ;;      Params:         0       0       0       0       0
  1064 ;;      Locals:         0       0       0       0       0
  1065 ;;      Temps:          0       0       0       0       0
  1066 ;;      Totals:         0       0       0       0       0
  1067 ;;Total ram usage:        0 bytes
  1068 ;; Hardware stack levels used: 1
  1069 ;; Hardware stack levels required when called: 3
  1070 ;; This function calls:
  1071 ;;		Nothing
  1072 ;; This function is called by:
  1073 ;;		_main
  1074 ;; This function uses a non-reentrant model
  1075 ;;
  1076                           
  1077                           
  1078                           ;psect for function _InitTimer1
  1079  05A9                     _InitTimer1:
  1080  05A9                     l1628:	
  1081                           ;incstack = 0
  1082                           ; Regs used in _InitTimer1: [wreg]
  1083                           
  1084                           
  1085                           ;MainCode.c: 277:                     LEDData[2]=10;
  1086  05A9  1283               	bcf	3,5	;RP0=0, select bank0
  1087  05AA  1303               	bcf	3,6	;RP1=0, select bank0
  1088  05AB  1090               	bcf	16,1	;volatile
  1089                           
  1090                           ;MainCode.c: 278:                     LEDData[3]=10;
  1091  05AC  1690               	bsf	16,5	;volatile
  1092                           
  1093                           ;MainCode.c: 279:                     LEDData[4]=10;
  1094  05AD  1610               	bsf	16,4	;volatile
  1095                           
  1096                           ;MainCode.c: 280:                     LEDData[5]=10;
  1097  05AE  1683               	bsf	3,5	;RP0=1, select bank1
  1098  05AF  1303               	bcf	3,6	;RP1=0, select bank1
  1099  05B0  140C               	bsf	12,0	;volatile
  1100                           
  1101                           ;MainCode.c: 281:                     LEDData[6]=10;
  1102  05B1  170B               	bsf	11,6	;volatile
  1103                           
  1104                           ;MainCode.c: 282:                     LEDData[7]=10;
  1105  05B2  178B               	bsf	11,7	;volatile
  1106                           
  1107                           ;MainCode.c: 283:                 }
  1108  05B3  1283               	bcf	3,5	;RP0=0, select bank0
  1109  05B4  1303               	bcf	3,6	;RP1=0, select bank0
  1110  05B5  100C               	bcf	12,0	;volatile
  1111  05B6                     l1630:
  1112                           
  1113                           ;MainCode.c: 284:                 else
  1114  05B6  3032               	movlw	50
  1115  05B7  008E               	movwf	14	;volatile
  1116                           
  1117                           ;MainCode.c: 285:                 {
  1118  05B8  30FF               	movlw	255
  1119  05B9  008F               	movwf	15	;volatile
  1120  05BA                     l1632:
  1121                           
  1122                           ;MainCode.c: 286:                     NightLight=1;
  1123  05BA  1410               	bsf	16,0	;volatile
  1124  05BB                     l146:
  1125  05BB  0008               	return
  1126  05BC                     __end_of_InitTimer1:
  1127                           
  1128                           	psect	text4
  1129  05CC                     __ptext4:	
  1130 ;; *************** function _InitTimer0 *****************
  1131 ;; Defined at:
  1132 ;;		line 261 in file "MainCode.c"
  1133 ;; Parameters:    Size  Location     Type
  1134 ;;		None
  1135 ;; Auto vars:     Size  Location     Type
  1136 ;;		None
  1137 ;; Return value:  Size  Location     Type
  1138 ;;                  1    wreg      void 
  1139 ;; Registers used:
  1140 ;;		wreg
  1141 ;; Tracked objects:
  1142 ;;		On entry : 0/0
  1143 ;;		On exit  : 0/0
  1144 ;;		Unchanged: 0/0
  1145 ;; Data sizes:     COMMON   BANK0   BANK1   BANK3   BANK2
  1146 ;;      Params:         0       0       0       0       0
  1147 ;;      Locals:         0       0       0       0       0
  1148 ;;      Temps:          0       0       0       0       0
  1149 ;;      Totals:         0       0       0       0       0
  1150 ;;Total ram usage:        0 bytes
  1151 ;; Hardware stack levels used: 1
  1152 ;; Hardware stack levels required when called: 3
  1153 ;; This function calls:
  1154 ;;		Nothing
  1155 ;; This function is called by:
  1156 ;;		_main
  1157 ;; This function uses a non-reentrant model
  1158 ;;
  1159                           
  1160                           
  1161                           ;psect for function _InitTimer0
  1162  05CC                     _InitTimer0:
  1163  05CC                     l1616:	
  1164                           ;incstack = 0
  1165                           ; Regs used in _InitTimer0: [wreg]
  1166                           
  1167                           
  1168                           ;MainCode.c: 263:                             SetLightPhase1Green();
  1169  05CC  1683               	bsf	3,5	;RP0=1, select bank1
  1170  05CD  1303               	bcf	3,6	;RP1=0, select bank1
  1171  05CE  1281               	bcf	1,5	;volatile
  1172                           
  1173                           ;MainCode.c: 264:                         }
  1174  05CF  1181               	bcf	1,3	;volatile
  1175                           
  1176                           ;MainCode.c: 265: 
  1177  05D0  1101               	bcf	1,2	;volatile
  1178                           
  1179                           ;MainCode.c: 266:                         DecodeNumber();
  1180  05D1  1481               	bsf	1,1	;volatile
  1181                           
  1182                           ;MainCode.c: 267:             }
  1183  05D2  1401               	bsf	1,0	;volatile
  1184  05D3                     l1618:
  1185                           
  1186                           ;MainCode.c: 268: 
  1187  05D3  3006               	movlw	6
  1188  05D4  1283               	bcf	3,5	;RP0=0, select bank0
  1189  05D5  1303               	bcf	3,6	;RP1=0, select bank0
  1190  05D6  0081               	movwf	1	;volatile
  1191  05D7                     l1620:
  1192                           
  1193                           ;MainCode.c: 269:             else
  1194  05D7  110B               	bcf	11,2	;volatile
  1195  05D8                     l1622:
  1196                           
  1197                           ;MainCode.c: 270:            {
  1198  05D8  168B               	bsf	11,5	;volatile
  1199  05D9                     l1624:
  1200                           
  1201                           ;MainCode.c: 271:                if(NightLight==1)
  1202  05D9  170B               	bsf	11,6	;volatile
  1203  05DA                     l1626:
  1204                           
  1205                           ;MainCode.c: 272:                 {
  1206  05DA  178B               	bsf	11,7	;volatile
  1207  05DB                     l143:
  1208  05DB  0008               	return
  1209  05DC                     __end_of_InitTimer0:
  1210                           
  1211                           	psect	text5
  1212  023F                     __ptext5:	
  1213 ;; *************** function _DecodeNumber *****************
  1214 ;; Defined at:
  1215 ;;		line 188 in file "MainCode.c"
  1216 ;; Parameters:    Size  Location     Type
  1217 ;;		None
  1218 ;; Auto vars:     Size  Location     Type
  1219 ;;		None
  1220 ;; Return value:  Size  Location     Type
  1221 ;;                  1    wreg      void 
  1222 ;; Registers used:
  1223 ;;		wreg, status,2, status,0, pclath, cstack
  1224 ;; Tracked objects:
  1225 ;;		On entry : 0/0
  1226 ;;		On exit  : 0/0
  1227 ;;		Unchanged: 0/0
  1228 ;; Data sizes:     COMMON   BANK0   BANK1   BANK3   BANK2
  1229 ;;      Params:         0       0       0       0       0
  1230 ;;      Locals:         0       0       0       0       0
  1231 ;;      Temps:          0       3       0       0       0
  1232 ;;      Totals:         0       3       0       0       0
  1233 ;;Total ram usage:        3 bytes
  1234 ;; Hardware stack levels used: 1
  1235 ;; Hardware stack levels required when called: 4
  1236 ;; This function calls:
  1237 ;;		___awdiv
  1238 ;;		___awmod
  1239 ;; This function is called by:
  1240 ;;		_main
  1241 ;; This function uses a non-reentrant model
  1242 ;;
  1243                           
  1244                           
  1245                           ;psect for function _DecodeNumber
  1246  023F                     _DecodeNumber:
  1247  023F                     l1582:	
  1248                           ;incstack = 0
  1249                           ; Regs used in _DecodeNumber: [wreg+status,2+status,0+pclath+cstack]
  1250                           
  1251                           
  1252                           ;MainCode.c: 190: 
  1253  023F  300A               	movlw	10
  1254  0240  1283               	bcf	3,5	;RP0=0, select bank0
  1255  0241  1303               	bcf	3,6	;RP1=0, select bank0
  1256  0242  00A5               	movwf	___awdiv@divisor
  1257  0243  3000               	movlw	0
  1258  0244  00A6               	movwf	___awdiv@divisor+1
  1259  0245  0850               	movf	_TimeCount1,w
  1260  0246  00AE               	movwf	??_DecodeNumber
  1261  0247  01AF               	clrf	??_DecodeNumber+1
  1262  0248  082E               	movf	??_DecodeNumber,w
  1263  0249  00A7               	movwf	___awdiv@dividend
  1264  024A  082F               	movf	??_DecodeNumber+1,w
  1265  024B  00A8               	movwf	___awdiv@dividend+1
  1266  024C  120A  118A  23A5  120A  118A  	fcall	___awdiv
  1267  0251  1283               	bcf	3,5	;RP0=0, select bank0
  1268  0252  1303               	bcf	3,6	;RP1=0, select bank0
  1269  0253  0825               	movf	?___awdiv,w
  1270  0254  00B0               	movwf	??_DecodeNumber+2
  1271  0255  0830               	movf	??_DecodeNumber+2,w
  1272  0256  00C3               	movwf	_LEDData
  1273                           
  1274                           ;MainCode.c: 191: 
  1275  0257  300A               	movlw	10
  1276  0258  00A5               	movwf	___awmod@divisor
  1277  0259  3000               	movlw	0
  1278  025A  00A6               	movwf	___awmod@divisor+1
  1279  025B  0850               	movf	_TimeCount1,w
  1280  025C  00AE               	movwf	??_DecodeNumber
  1281  025D  01AF               	clrf	??_DecodeNumber+1
  1282  025E  082E               	movf	??_DecodeNumber,w
  1283  025F  00A7               	movwf	___awmod@dividend
  1284  0260  082F               	movf	??_DecodeNumber+1,w
  1285  0261  00A8               	movwf	___awmod@dividend+1
  1286  0262  120A  118A  2475  120A  118A  	fcall	___awmod
  1287  0267  1283               	bcf	3,5	;RP0=0, select bank0
  1288  0268  1303               	bcf	3,6	;RP1=0, select bank0
  1289  0269  0825               	movf	?___awmod,w
  1290  026A  00B0               	movwf	??_DecodeNumber+2
  1291  026B  0830               	movf	??_DecodeNumber+2,w
  1292  026C  00C4               	movwf	_LEDData+1
  1293                           
  1294                           ;MainCode.c: 193: void InitTimer0()
  1295  026D  300A               	movlw	10
  1296  026E  00A5               	movwf	___awdiv@divisor
  1297  026F  3000               	movlw	0
  1298  0270  00A6               	movwf	___awdiv@divisor+1
  1299  0271  0850               	movf	_TimeCount1,w
  1300  0272  00AE               	movwf	??_DecodeNumber
  1301  0273  01AF               	clrf	??_DecodeNumber+1
  1302  0274  082E               	movf	??_DecodeNumber,w
  1303  0275  00A7               	movwf	___awdiv@dividend
  1304  0276  082F               	movf	??_DecodeNumber+1,w
  1305  0277  00A8               	movwf	___awdiv@dividend+1
  1306  0278  120A  118A  23A5  120A  118A  	fcall	___awdiv
  1307  027D  1283               	bcf	3,5	;RP0=0, select bank0
  1308  027E  1303               	bcf	3,6	;RP1=0, select bank0
  1309  027F  0825               	movf	?___awdiv,w
  1310  0280  00B0               	movwf	??_DecodeNumber+2
  1311  0281  0830               	movf	??_DecodeNumber+2,w
  1312  0282  00C5               	movwf	_LEDData+2
  1313                           
  1314                           ;MainCode.c: 194: {
  1315  0283  300A               	movlw	10
  1316  0284  00A5               	movwf	___awmod@divisor
  1317  0285  3000               	movlw	0
  1318  0286  00A6               	movwf	___awmod@divisor+1
  1319  0287  0850               	movf	_TimeCount1,w
  1320  0288  00AE               	movwf	??_DecodeNumber
  1321  0289  01AF               	clrf	??_DecodeNumber+1
  1322  028A  082E               	movf	??_DecodeNumber,w
  1323  028B  00A7               	movwf	___awmod@dividend
  1324  028C  082F               	movf	??_DecodeNumber+1,w
  1325  028D  00A8               	movwf	___awmod@dividend+1
  1326  028E  120A  118A  2475  120A  118A  	fcall	___awmod
  1327  0293  1283               	bcf	3,5	;RP0=0, select bank0
  1328  0294  1303               	bcf	3,6	;RP1=0, select bank0
  1329  0295  0825               	movf	?___awmod,w
  1330  0296  00B0               	movwf	??_DecodeNumber+2
  1331  0297  0830               	movf	??_DecodeNumber+2,w
  1332  0298  00C6               	movwf	_LEDData+3
  1333                           
  1334                           ;MainCode.c: 196:     OPTION_REGbits.PSA = 0;
  1335  0299  300A               	movlw	10
  1336  029A  00A5               	movwf	___awdiv@divisor
  1337  029B  3000               	movlw	0
  1338  029C  00A6               	movwf	___awdiv@divisor+1
  1339  029D  084F               	movf	_TimeCount2,w
  1340  029E  00AE               	movwf	??_DecodeNumber
  1341  029F  01AF               	clrf	??_DecodeNumber+1
  1342  02A0  082E               	movf	??_DecodeNumber,w
  1343  02A1  00A7               	movwf	___awdiv@dividend
  1344  02A2  082F               	movf	??_DecodeNumber+1,w
  1345  02A3  00A8               	movwf	___awdiv@dividend+1
  1346  02A4  120A  118A  23A5  120A  118A  	fcall	___awdiv
  1347  02A9  1283               	bcf	3,5	;RP0=0, select bank0
  1348  02AA  1303               	bcf	3,6	;RP1=0, select bank0
  1349  02AB  0825               	movf	?___awdiv,w
  1350  02AC  00B0               	movwf	??_DecodeNumber+2
  1351  02AD  0830               	movf	??_DecodeNumber+2,w
  1352  02AE  00C7               	movwf	_LEDData+4
  1353                           
  1354                           ;MainCode.c: 197:     OPTION_REGbits.PS2=0;
  1355  02AF  300A               	movlw	10
  1356  02B0  00A5               	movwf	___awmod@divisor
  1357  02B1  3000               	movlw	0
  1358  02B2  00A6               	movwf	___awmod@divisor+1
  1359  02B3  084F               	movf	_TimeCount2,w
  1360  02B4  00AE               	movwf	??_DecodeNumber
  1361  02B5  01AF               	clrf	??_DecodeNumber+1
  1362  02B6  082E               	movf	??_DecodeNumber,w
  1363  02B7  00A7               	movwf	___awmod@dividend
  1364  02B8  082F               	movf	??_DecodeNumber+1,w
  1365  02B9  00A8               	movwf	___awmod@dividend+1
  1366  02BA  120A  118A  2475  120A  118A  	fcall	___awmod
  1367  02BF  1283               	bcf	3,5	;RP0=0, select bank0
  1368  02C0  1303               	bcf	3,6	;RP1=0, select bank0
  1369  02C1  0825               	movf	?___awmod,w
  1370  02C2  00B0               	movwf	??_DecodeNumber+2
  1371  02C3  0830               	movf	??_DecodeNumber+2,w
  1372  02C4  00C8               	movwf	_LEDData+5
  1373                           
  1374                           ;MainCode.c: 199:     OPTION_REGbits.PS0=1;
  1375  02C5  300A               	movlw	10
  1376  02C6  00A5               	movwf	___awdiv@divisor
  1377  02C7  3000               	movlw	0
  1378  02C8  00A6               	movwf	___awdiv@divisor+1
  1379  02C9  084F               	movf	_TimeCount2,w
  1380  02CA  00AE               	movwf	??_DecodeNumber
  1381  02CB  01AF               	clrf	??_DecodeNumber+1
  1382  02CC  082E               	movf	??_DecodeNumber,w
  1383  02CD  00A7               	movwf	___awdiv@dividend
  1384  02CE  082F               	movf	??_DecodeNumber+1,w
  1385  02CF  00A8               	movwf	___awdiv@dividend+1
  1386  02D0  120A  118A  23A5  120A  118A  	fcall	___awdiv
  1387  02D5  1283               	bcf	3,5	;RP0=0, select bank0
  1388  02D6  1303               	bcf	3,6	;RP1=0, select bank0
  1389  02D7  0825               	movf	?___awdiv,w
  1390  02D8  00B0               	movwf	??_DecodeNumber+2
  1391  02D9  0830               	movf	??_DecodeNumber+2,w
  1392  02DA  00C9               	movwf	_LEDData+6
  1393                           
  1394                           ;MainCode.c: 200:     TMR0=6;
  1395  02DB  300A               	movlw	10
  1396  02DC  00A5               	movwf	___awmod@divisor
  1397  02DD  3000               	movlw	0
  1398  02DE  00A6               	movwf	___awmod@divisor+1
  1399  02DF  084F               	movf	_TimeCount2,w
  1400  02E0  00AE               	movwf	??_DecodeNumber
  1401  02E1  01AF               	clrf	??_DecodeNumber+1
  1402  02E2  082E               	movf	??_DecodeNumber,w
  1403  02E3  00A7               	movwf	___awmod@dividend
  1404  02E4  082F               	movf	??_DecodeNumber+1,w
  1405  02E5  00A8               	movwf	___awmod@dividend+1
  1406  02E6  120A  118A  2475  120A  118A  	fcall	___awmod
  1407  02EB  1283               	bcf	3,5	;RP0=0, select bank0
  1408  02EC  1303               	bcf	3,6	;RP1=0, select bank0
  1409  02ED  0825               	movf	?___awmod,w
  1410  02EE  00B0               	movwf	??_DecodeNumber+2
  1411  02EF  0830               	movf	??_DecodeNumber+2,w
  1412  02F0  00CA               	movwf	_LEDData+7
  1413  02F1                     l122:
  1414  02F1  0008               	return
  1415  02F2                     __end_of_DecodeNumber:
  1416                           
  1417                           	psect	text6
  1418  0475                     __ptext6:	
  1419 ;; *************** function ___awmod *****************
  1420 ;; Defined at:
  1421 ;;		line 5 in file "E:\Program Files\Microchip\xc8\v2.32\pic\sources\c90\common\awmod.c"
  1422 ;; Parameters:    Size  Location     Type
  1423 ;;  divisor         2    5[BANK0 ] int 
  1424 ;;  dividend        2    7[BANK0 ] int 
  1425 ;; Auto vars:     Size  Location     Type
  1426 ;;  sign            1   11[BANK0 ] unsigned char 
  1427 ;;  counter         1   10[BANK0 ] unsigned char 
  1428 ;; Return value:  Size  Location     Type
  1429 ;;                  2    5[BANK0 ] int 
  1430 ;; Registers used:
  1431 ;;		wreg, status,2, status,0
  1432 ;; Tracked objects:
  1433 ;;		On entry : 0/0
  1434 ;;		On exit  : 0/0
  1435 ;;		Unchanged: 0/0
  1436 ;; Data sizes:     COMMON   BANK0   BANK1   BANK3   BANK2
  1437 ;;      Params:         0       4       0       0       0
  1438 ;;      Locals:         0       2       0       0       0
  1439 ;;      Temps:          0       1       0       0       0
  1440 ;;      Totals:         0       7       0       0       0
  1441 ;;Total ram usage:        7 bytes
  1442 ;; Hardware stack levels used: 1
  1443 ;; Hardware stack levels required when called: 3
  1444 ;; This function calls:
  1445 ;;		Nothing
  1446 ;; This function is called by:
  1447 ;;		_DecodeNumber
  1448 ;; This function uses a non-reentrant model
  1449 ;;
  1450                           
  1451                           
  1452                           ;psect for function ___awmod
  1453  0475                     ___awmod:
  1454  0475                     l1364:	
  1455                           ;incstack = 0
  1456                           ; Regs used in ___awmod: [wreg+status,2+status,0]
  1457                           
  1458  0475  1283               	bcf	3,5	;RP0=0, select bank0
  1459  0476  1303               	bcf	3,6	;RP1=0, select bank0
  1460  0477  01AB               	clrf	___awmod@sign
  1461  0478                     l1366:
  1462  0478  1FA8               	btfss	___awmod@dividend+1,7
  1463  0479  2C7B               	goto	u781
  1464  047A  2C7C               	goto	u780
  1465  047B                     u781:
  1466  047B  2C83               	goto	l1372
  1467  047C                     u780:
  1468  047C                     l1368:
  1469  047C  09A7               	comf	___awmod@dividend,f
  1470  047D  09A8               	comf	___awmod@dividend+1,f
  1471  047E  0AA7               	incf	___awmod@dividend,f
  1472  047F  1903               	skipnz
  1473  0480  0AA8               	incf	___awmod@dividend+1,f
  1474  0481                     l1370:
  1475  0481  01AB               	clrf	___awmod@sign
  1476  0482  0AAB               	incf	___awmod@sign,f
  1477  0483                     l1372:
  1478  0483  1FA6               	btfss	___awmod@divisor+1,7
  1479  0484  2C86               	goto	u791
  1480  0485  2C87               	goto	u790
  1481  0486                     u791:
  1482  0486  2C8C               	goto	l1376
  1483  0487                     u790:
  1484  0487                     l1374:
  1485  0487  09A5               	comf	___awmod@divisor,f
  1486  0488  09A6               	comf	___awmod@divisor+1,f
  1487  0489  0AA5               	incf	___awmod@divisor,f
  1488  048A  1903               	skipnz
  1489  048B  0AA6               	incf	___awmod@divisor+1,f
  1490  048C                     l1376:
  1491  048C  0825               	movf	___awmod@divisor,w
  1492  048D  0426               	iorwf	___awmod@divisor+1,w
  1493  048E  1903               	btfsc	3,2
  1494  048F  2C91               	goto	u801
  1495  0490  2C92               	goto	u800
  1496  0491                     u801:
  1497  0491  2CC1               	goto	l1394
  1498  0492                     u800:
  1499  0492                     l1378:
  1500  0492  01AA               	clrf	___awmod@counter
  1501  0493  0AAA               	incf	___awmod@counter,f
  1502  0494  2CA0               	goto	l1384
  1503  0495                     l1380:
  1504  0495  3001               	movlw	1
  1505  0496                     u815:
  1506  0496  1003               	clrc
  1507  0497  0DA5               	rlf	___awmod@divisor,f
  1508  0498  0DA6               	rlf	___awmod@divisor+1,f
  1509  0499  3EFF               	addlw	-1
  1510  049A  1D03               	skipz
  1511  049B  2C96               	goto	u815
  1512  049C                     l1382:
  1513  049C  3001               	movlw	1
  1514  049D  00A9               	movwf	??___awmod
  1515  049E  0829               	movf	??___awmod,w
  1516  049F  07AA               	addwf	___awmod@counter,f
  1517  04A0                     l1384:
  1518  04A0  1FA6               	btfss	___awmod@divisor+1,7
  1519  04A1  2CA3               	goto	u821
  1520  04A2  2CA4               	goto	u820
  1521  04A3                     u821:
  1522  04A3  2C95               	goto	l1380
  1523  04A4                     u820:
  1524  04A4                     l1386:
  1525  04A4  0826               	movf	___awmod@divisor+1,w
  1526  04A5  0228               	subwf	___awmod@dividend+1,w
  1527  04A6  1D03               	skipz
  1528  04A7  2CAA               	goto	u835
  1529  04A8  0825               	movf	___awmod@divisor,w
  1530  04A9  0227               	subwf	___awmod@dividend,w
  1531  04AA                     u835:
  1532  04AA  1C03               	skipc
  1533  04AB  2CAD               	goto	u831
  1534  04AC  2CAE               	goto	u830
  1535  04AD                     u831:
  1536  04AD  2CB4               	goto	l1390
  1537  04AE                     u830:
  1538  04AE                     l1388:
  1539  04AE  0825               	movf	___awmod@divisor,w
  1540  04AF  02A7               	subwf	___awmod@dividend,f
  1541  04B0  0826               	movf	___awmod@divisor+1,w
  1542  04B1  1C03               	skipc
  1543  04B2  03A8               	decf	___awmod@dividend+1,f
  1544  04B3  02A8               	subwf	___awmod@dividend+1,f
  1545  04B4                     l1390:
  1546  04B4  3001               	movlw	1
  1547  04B5                     u845:
  1548  04B5  1003               	clrc
  1549  04B6  0CA6               	rrf	___awmod@divisor+1,f
  1550  04B7  0CA5               	rrf	___awmod@divisor,f
  1551  04B8  3EFF               	addlw	-1
  1552  04B9  1D03               	skipz
  1553  04BA  2CB5               	goto	u845
  1554  04BB                     l1392:
  1555  04BB  3001               	movlw	1
  1556  04BC  02AA               	subwf	___awmod@counter,f
  1557  04BD  1D03               	btfss	3,2
  1558  04BE  2CC0               	goto	u851
  1559  04BF  2CC1               	goto	u850
  1560  04C0                     u851:
  1561  04C0  2CA4               	goto	l1386
  1562  04C1                     u850:
  1563  04C1                     l1394:
  1564  04C1  082B               	movf	___awmod@sign,w
  1565  04C2  1903               	btfsc	3,2
  1566  04C3  2CC5               	goto	u861
  1567  04C4  2CC6               	goto	u860
  1568  04C5                     u861:
  1569  04C5  2CCB               	goto	l1398
  1570  04C6                     u860:
  1571  04C6                     l1396:
  1572  04C6  09A7               	comf	___awmod@dividend,f
  1573  04C7  09A8               	comf	___awmod@dividend+1,f
  1574  04C8  0AA7               	incf	___awmod@dividend,f
  1575  04C9  1903               	skipnz
  1576  04CA  0AA8               	incf	___awmod@dividend+1,f
  1577  04CB                     l1398:
  1578  04CB  0828               	movf	___awmod@dividend+1,w
  1579  04CC  00A6               	movwf	?___awmod+1
  1580  04CD  0827               	movf	___awmod@dividend,w
  1581  04CE  00A5               	movwf	?___awmod
  1582  04CF                     l428:
  1583  04CF  0008               	return
  1584  04D0                     __end_of___awmod:
  1585                           
  1586                           	psect	text7
  1587  03A5                     __ptext7:	
  1588 ;; *************** function ___awdiv *****************
  1589 ;; Defined at:
  1590 ;;		line 5 in file "E:\Program Files\Microchip\xc8\v2.32\pic\sources\c90\common\awdiv.c"
  1591 ;; Parameters:    Size  Location     Type
  1592 ;;  divisor         2    5[BANK0 ] int 
  1593 ;;  dividend        2    7[BANK0 ] int 
  1594 ;; Auto vars:     Size  Location     Type
  1595 ;;  quotient        2   12[BANK0 ] int 
  1596 ;;  sign            1   11[BANK0 ] unsigned char 
  1597 ;;  counter         1   10[BANK0 ] unsigned char 
  1598 ;; Return value:  Size  Location     Type
  1599 ;;                  2    5[BANK0 ] int 
  1600 ;; Registers used:
  1601 ;;		wreg, status,2, status,0
  1602 ;; Tracked objects:
  1603 ;;		On entry : 0/0
  1604 ;;		On exit  : 0/0
  1605 ;;		Unchanged: 0/0
  1606 ;; Data sizes:     COMMON   BANK0   BANK1   BANK3   BANK2
  1607 ;;      Params:         0       4       0       0       0
  1608 ;;      Locals:         0       4       0       0       0
  1609 ;;      Temps:          0       1       0       0       0
  1610 ;;      Totals:         0       9       0       0       0
  1611 ;;Total ram usage:        9 bytes
  1612 ;; Hardware stack levels used: 1
  1613 ;; Hardware stack levels required when called: 3
  1614 ;; This function calls:
  1615 ;;		Nothing
  1616 ;; This function is called by:
  1617 ;;		_DecodeNumber
  1618 ;; This function uses a non-reentrant model
  1619 ;;
  1620                           
  1621                           
  1622                           ;psect for function ___awdiv
  1623  03A5                     ___awdiv:
  1624  03A5                     l1320:	
  1625                           ;incstack = 0
  1626                           ; Regs used in ___awdiv: [wreg+status,2+status,0]
  1627                           
  1628  03A5  1283               	bcf	3,5	;RP0=0, select bank0
  1629  03A6  1303               	bcf	3,6	;RP1=0, select bank0
  1630  03A7  01AB               	clrf	___awdiv@sign
  1631  03A8                     l1322:
  1632  03A8  1FA6               	btfss	___awdiv@divisor+1,7
  1633  03A9  2BAB               	goto	u681
  1634  03AA  2BAC               	goto	u680
  1635  03AB                     u681:
  1636  03AB  2BB3               	goto	l1328
  1637  03AC                     u680:
  1638  03AC                     l1324:
  1639  03AC  09A5               	comf	___awdiv@divisor,f
  1640  03AD  09A6               	comf	___awdiv@divisor+1,f
  1641  03AE  0AA5               	incf	___awdiv@divisor,f
  1642  03AF  1903               	skipnz
  1643  03B0  0AA6               	incf	___awdiv@divisor+1,f
  1644  03B1                     l1326:
  1645  03B1  01AB               	clrf	___awdiv@sign
  1646  03B2  0AAB               	incf	___awdiv@sign,f
  1647  03B3                     l1328:
  1648  03B3  1FA8               	btfss	___awdiv@dividend+1,7
  1649  03B4  2BB6               	goto	u691
  1650  03B5  2BB7               	goto	u690
  1651  03B6                     u691:
  1652  03B6  2BC0               	goto	l1334
  1653  03B7                     u690:
  1654  03B7                     l1330:
  1655  03B7  09A7               	comf	___awdiv@dividend,f
  1656  03B8  09A8               	comf	___awdiv@dividend+1,f
  1657  03B9  0AA7               	incf	___awdiv@dividend,f
  1658  03BA  1903               	skipnz
  1659  03BB  0AA8               	incf	___awdiv@dividend+1,f
  1660  03BC                     l1332:
  1661  03BC  3001               	movlw	1
  1662  03BD  00A9               	movwf	??___awdiv
  1663  03BE  0829               	movf	??___awdiv,w
  1664  03BF  06AB               	xorwf	___awdiv@sign,f
  1665  03C0                     l1334:
  1666  03C0  01AC               	clrf	___awdiv@quotient
  1667  03C1  01AD               	clrf	___awdiv@quotient+1
  1668  03C2                     l1336:
  1669  03C2  0825               	movf	___awdiv@divisor,w
  1670  03C3  0426               	iorwf	___awdiv@divisor+1,w
  1671  03C4  1903               	btfsc	3,2
  1672  03C5  2BC7               	goto	u701
  1673  03C6  2BC8               	goto	u700
  1674  03C7                     u701:
  1675  03C7  2BFF               	goto	l1356
  1676  03C8                     u700:
  1677  03C8                     l1338:
  1678  03C8  01AA               	clrf	___awdiv@counter
  1679  03C9  0AAA               	incf	___awdiv@counter,f
  1680  03CA  2BD6               	goto	l1344
  1681  03CB                     l1340:
  1682  03CB  3001               	movlw	1
  1683  03CC                     u715:
  1684  03CC  1003               	clrc
  1685  03CD  0DA5               	rlf	___awdiv@divisor,f
  1686  03CE  0DA6               	rlf	___awdiv@divisor+1,f
  1687  03CF  3EFF               	addlw	-1
  1688  03D0  1D03               	skipz
  1689  03D1  2BCC               	goto	u715
  1690  03D2                     l1342:
  1691  03D2  3001               	movlw	1
  1692  03D3  00A9               	movwf	??___awdiv
  1693  03D4  0829               	movf	??___awdiv,w
  1694  03D5  07AA               	addwf	___awdiv@counter,f
  1695  03D6                     l1344:
  1696  03D6  1FA6               	btfss	___awdiv@divisor+1,7
  1697  03D7  2BD9               	goto	u721
  1698  03D8  2BDA               	goto	u720
  1699  03D9                     u721:
  1700  03D9  2BCB               	goto	l1340
  1701  03DA                     u720:
  1702  03DA                     l1346:
  1703  03DA  3001               	movlw	1
  1704  03DB                     u735:
  1705  03DB  1003               	clrc
  1706  03DC  0DAC               	rlf	___awdiv@quotient,f
  1707  03DD  0DAD               	rlf	___awdiv@quotient+1,f
  1708  03DE  3EFF               	addlw	-1
  1709  03DF  1D03               	skipz
  1710  03E0  2BDB               	goto	u735
  1711  03E1  0826               	movf	___awdiv@divisor+1,w
  1712  03E2  0228               	subwf	___awdiv@dividend+1,w
  1713  03E3  1D03               	skipz
  1714  03E4  2BE7               	goto	u745
  1715  03E5  0825               	movf	___awdiv@divisor,w
  1716  03E6  0227               	subwf	___awdiv@dividend,w
  1717  03E7                     u745:
  1718  03E7  1C03               	skipc
  1719  03E8  2BEA               	goto	u741
  1720  03E9  2BEB               	goto	u740
  1721  03EA                     u741:
  1722  03EA  2BF2               	goto	l1352
  1723  03EB                     u740:
  1724  03EB                     l1348:
  1725  03EB  0825               	movf	___awdiv@divisor,w
  1726  03EC  02A7               	subwf	___awdiv@dividend,f
  1727  03ED  0826               	movf	___awdiv@divisor+1,w
  1728  03EE  1C03               	skipc
  1729  03EF  03A8               	decf	___awdiv@dividend+1,f
  1730  03F0  02A8               	subwf	___awdiv@dividend+1,f
  1731  03F1                     l1350:
  1732  03F1  142C               	bsf	___awdiv@quotient,0
  1733  03F2                     l1352:
  1734  03F2  3001               	movlw	1
  1735  03F3                     u755:
  1736  03F3  1003               	clrc
  1737  03F4  0CA6               	rrf	___awdiv@divisor+1,f
  1738  03F5  0CA5               	rrf	___awdiv@divisor,f
  1739  03F6  3EFF               	addlw	-1
  1740  03F7  1D03               	skipz
  1741  03F8  2BF3               	goto	u755
  1742  03F9                     l1354:
  1743  03F9  3001               	movlw	1
  1744  03FA  02AA               	subwf	___awdiv@counter,f
  1745  03FB  1D03               	btfss	3,2
  1746  03FC  2BFE               	goto	u761
  1747  03FD  2BFF               	goto	u760
  1748  03FE                     u761:
  1749  03FE  2BDA               	goto	l1346
  1750  03FF                     u760:
  1751  03FF                     l1356:
  1752  03FF  082B               	movf	___awdiv@sign,w
  1753  0400  1903               	btfsc	3,2
  1754  0401  2C03               	goto	u771
  1755  0402  2C04               	goto	u770
  1756  0403                     u771:
  1757  0403  2C09               	goto	l1360
  1758  0404                     u770:
  1759  0404                     l1358:
  1760  0404  09AC               	comf	___awdiv@quotient,f
  1761  0405  09AD               	comf	___awdiv@quotient+1,f
  1762  0406  0AAC               	incf	___awdiv@quotient,f
  1763  0407  1903               	skipnz
  1764  0408  0AAD               	incf	___awdiv@quotient+1,f
  1765  0409                     l1360:
  1766  0409  082D               	movf	___awdiv@quotient+1,w
  1767  040A  00A6               	movwf	?___awdiv+1
  1768  040B  082C               	movf	___awdiv@quotient,w
  1769  040C  00A5               	movwf	?___awdiv
  1770  040D                     l415:
  1771  040D  0008               	return
  1772  040E                     __end_of___awdiv:
  1773                           
  1774                           	psect	text8
  1775  0580                     __ptext8:	
  1776 ;; *************** function _CheckButton *****************
  1777 ;; Defined at:
  1778 ;;		line 144 in file "MainCode.c"
  1779 ;; Parameters:    Size  Location     Type
  1780 ;;		None
  1781 ;; Auto vars:     Size  Location     Type
  1782 ;;		None
  1783 ;; Return value:  Size  Location     Type
  1784 ;;                  1    wreg      unsigned char 
  1785 ;; Registers used:
  1786 ;;		wreg
  1787 ;; Tracked objects:
  1788 ;;		On entry : 0/0
  1789 ;;		On exit  : 0/0
  1790 ;;		Unchanged: 0/0
  1791 ;; Data sizes:     COMMON   BANK0   BANK1   BANK3   BANK2
  1792 ;;      Params:         0       0       0       0       0
  1793 ;;      Locals:         0       0       0       0       0
  1794 ;;      Temps:          0       0       0       0       0
  1795 ;;      Totals:         0       0       0       0       0
  1796 ;;Total ram usage:        0 bytes
  1797 ;; Hardware stack levels used: 1
  1798 ;; Hardware stack levels required when called: 3
  1799 ;; This function calls:
  1800 ;;		Nothing
  1801 ;; This function is called by:
  1802 ;;		_main
  1803 ;; This function uses a non-reentrant model
  1804 ;;
  1805                           
  1806                           
  1807                           ;psect for function _CheckButton
  1808  0580                     _CheckButton:
  1809  0580                     l1524:	
  1810                           ;incstack = 0
  1811                           ; Regs used in _CheckButton: [wreg]
  1812                           
  1813                           
  1814                           ;MainCode.c: 146:     TimeCount1=3;
  1815  0580  1283               	bcf	3,5	;RP0=0, select bank0
  1816  0581  1303               	bcf	3,6	;RP1=0, select bank0
  1817  0582  1806               	btfsc	6,0	;volatile
  1818  0583  2D85               	goto	u1061
  1819  0584  2D86               	goto	u1060
  1820  0585                     u1061:
  1821  0585  2D88               	goto	l97
  1822  0586                     u1060:
  1823  0586                     l1526:
  1824                           
  1825                           ;MainCode.c: 147:     TimeCount2=3;;MainCode.c: 149: }
  1826  0586  3001               	movlw	1
  1827  0587  2D95               	goto	l98
  1828  0588                     l97:	
  1829                           ;MainCode.c: 151: void SetTimePhase2Green()
  1830                           
  1831                           
  1832                           ;MainCode.c: 153:     TimeCount1=Phase2GreenTime+3;
  1833  0588  1B06               	btfsc	6,6	;volatile
  1834  0589  2D8B               	goto	u1071
  1835  058A  2D8C               	goto	u1070
  1836  058B                     u1071:
  1837  058B  2D8E               	goto	l99
  1838  058C                     u1070:
  1839  058C                     l1530:
  1840                           
  1841                           ;MainCode.c: 154:     TimeCount2=Phase2GreenTime;;MainCode.c: 156: }
  1842  058C  3002               	movlw	2
  1843  058D  2D95               	goto	l98
  1844  058E                     l99:	
  1845                           ;MainCode.c: 158: void SetTimePhase2Yellow()
  1846                           
  1847                           
  1848                           ;MainCode.c: 159: {
  1849  058E  1B86               	btfsc	6,7	;volatile
  1850  058F  2D91               	goto	u1081
  1851  0590  2D92               	goto	u1080
  1852  0591                     u1081:
  1853  0591  2D94               	goto	l1538
  1854  0592                     u1080:
  1855  0592                     l1534:
  1856                           
  1857                           ;MainCode.c: 160:     TimeCount1=3;;MainCode.c: 162: 
  1858  0592  3003               	movlw	3
  1859  0593  2D95               	goto	l98
  1860  0594                     l1538:
  1861                           
  1862                           ;MainCode.c: 166: 
  1863  0594  3000               	movlw	0
  1864  0595                     l98:
  1865  0595  0008               	return
  1866  0596                     __end_of_CheckButton:
  1867                           
  1868                           	psect	text9
  1869  0035                     __ptext9:	
  1870 ;; *************** function _ISR *****************
  1871 ;; Defined at:
  1872 ;;		line 289 in file "MainCode.c"
  1873 ;; Parameters:    Size  Location     Type
  1874 ;;		None
  1875 ;; Auto vars:     Size  Location     Type
  1876 ;;		None
  1877 ;; Return value:  Size  Location     Type
  1878 ;;                  1    wreg      void 
  1879 ;; Registers used:
  1880 ;;		wreg, fsr0l, fsr0h, status,2, status,0, btemp+1, pclath, cstack
  1881 ;; Tracked objects:
  1882 ;;		On entry : 0/0
  1883 ;;		On exit  : 0/0
  1884 ;;		Unchanged: 0/0
  1885 ;; Data sizes:     COMMON   BANK0   BANK1   BANK3   BANK2
  1886 ;;      Params:         0       0       0       0       0
  1887 ;;      Locals:         0       0       0       0       0
  1888 ;;      Temps:          0       5       0       0       0
  1889 ;;      Totals:         0       5       0       0       0
  1890 ;;Total ram usage:        5 bytes
  1891 ;; Hardware stack levels used: 1
  1892 ;; Hardware stack levels required when called: 2
  1893 ;; This function calls:
  1894 ;;		_OffYellow
  1895 ;;		_OnYellow
  1896 ;;		_ScanLED
  1897 ;;		_SetLightPhase1Yellow
  1898 ;;		_SetLightPhase2Green
  1899 ;;		_SetLightPhase2Yellow
  1900 ;;		_SetTimePhase1Yellow
  1901 ;;		_SetTimePhase2Green
  1902 ;;		_SetTimePhase2Yellow
  1903 ;;		i1_DecodeNumber
  1904 ;;		i1_SetLightPhase1Green
  1905 ;;		i1_SetTimePhase1Green
  1906 ;; This function is called by:
  1907 ;;		Interrupt level 1
  1908 ;; This function uses a non-reentrant model
  1909 ;;
  1910                           
  1911                           
  1912                           ;psect for function _ISR
  1913  0035                     _ISR:
  1914  0035                     i1l1650:
  1915                           
  1916                           ;MainCode.c: 292:                     LEDData[4]=11;
  1917  0035  1D0B               	btfss	11,2	;volatile
  1918  0036  2838               	goto	u118_21
  1919  0037  2839               	goto	u118_20
  1920  0038                     u118_21:
  1921  0038  2920               	goto	i1l1742
  1922  0039                     u118_20:
  1923  0039                     i1l1652:
  1924                           
  1925                           ;MainCode.c: 293:                     LEDData[5]=11;;MainCode.c: 294:                   
      +                            LEDData[6]=11;
  1926  0039  110B               	bcf	11,2	;volatile
  1927  003A                     i1l1654:
  1928                           
  1929                           ;MainCode.c: 295:                     LEDData[7]=11;
  1930  003A  3006               	movlw	6
  1931  003B  0081               	movwf	1	;volatile
  1932                           
  1933                           ;MainCode.c: 296:                 }
  1934  003C  3001               	movlw	1
  1935  003D  07CD               	addwf	_Timer0Count,f
  1936  003E  1803               	skipnc
  1937  003F  0ACE               	incf	_Timer0Count+1,f
  1938  0040  3000               	movlw	0
  1939  0041  07CE               	addwf	_Timer0Count+1,f
  1940  0042                     i1l1656:
  1941                           
  1942                           ;MainCode.c: 298:             }
  1943  0042  084E               	movf	_Timer0Count+1,w
  1944  0043  3A80               	xorlw	128
  1945  0044  00FF               	movwf	btemp+1
  1946  0045  3081               	movlw	129
  1947  0046  027F               	subwf	btemp+1,w
  1948  0047  1D03               	skipz
  1949  0048  284B               	goto	u119_25
  1950  0049  30F4               	movlw	244
  1951  004A  024D               	subwf	_Timer0Count,w
  1952  004B                     u119_25:
  1953  004B  1C03               	skipc
  1954  004C  284E               	goto	u119_21
  1955  004D  284F               	goto	u119_20
  1956  004E                     u119_21:
  1957  004E  2920               	goto	i1l1742
  1958  004F                     u119_20:
  1959  004F                     i1l1658:
  1960                           
  1961                           ;MainCode.c: 299:         };MainCode.c: 300: 
  1962  004F  1283               	bcf	3,5	;RP0=0, select bank0
  1963  0050  1303               	bcf	3,6	;RP1=0, select bank0
  1964  0051  01CD               	clrf	_Timer0Count
  1965  0052  01CE               	clrf	_Timer0Count+1
  1966  0053                     i1l1660:
  1967                           
  1968                           ;MainCode.c: 303: 
  1969  0053  0340               	decf	_NightMode,w
  1970  0054  1D03               	btfss	3,2
  1971  0055  2857               	goto	u120_21
  1972  0056  2858               	goto	u120_20
  1973  0057                     u120_21:
  1974  0057  28C9               	goto	i1l1702
  1975  0058                     u120_20:
  1976  0058                     i1l1662:
  1977                           
  1978                           ;MainCode.c: 304:     if(PIR1bits.TMR1IF==1);MainCode.c: 305:     {
  1979  0058  3001               	movlw	1
  1980  0059  02D0               	subwf	_TimeCount1,f
  1981                           
  1982                           ;MainCode.c: 306:         PIR1bits.TMR1IF=0;
  1983  005A  3001               	movlw	1
  1984  005B  02CF               	subwf	_TimeCount2,f
  1985                           
  1986                           ;MainCode.c: 308:         TMR1H=255;
  1987  005C  087C               	movf	_CurrentState,w
  1988  005D  1D03               	btfss	3,2
  1989  005E  2860               	goto	u121_21
  1990  005F  2861               	goto	u121_20
  1991  0060                     u121_21:
  1992  0060  2872               	goto	i1l1670
  1993  0061                     u121_20:
  1994  0061                     i1l1664:
  1995  0061  0850               	movf	_TimeCount1,w
  1996  0062  1D03               	btfss	3,2
  1997  0063  2865               	goto	u122_21
  1998  0064  2866               	goto	u122_20
  1999  0065                     u122_21:
  2000  0065  2872               	goto	i1l1670
  2001  0066                     u122_20:
  2002  0066                     i1l1666:
  2003                           
  2004                           ;MainCode.c: 309:         Timer1Count++;;MainCode.c: 310: 
  2005  0066  120A  118A  2621  120A  118A  	fcall	_SetTimePhase1Yellow
  2006  006B                     i1l1668:
  2007                           
  2008                           ;MainCode.c: 311:         if(Timer1Count>=5)
  2009  006B  01FC               	clrf	_CurrentState
  2010  006C  0AFC               	incf	_CurrentState,f
  2011                           
  2012                           ;MainCode.c: 312:         {
  2013  006D  120A  118A  2642  120A  118A  	fcall	_SetLightPhase1Yellow
  2014  0072                     i1l1670:
  2015                           
  2016                           ;MainCode.c: 314:             ScanLED();
  2017  0072  037C               	decf	_CurrentState,w
  2018  0073  1D03               	btfss	3,2
  2019  0074  2876               	goto	u123_21
  2020  0075  2877               	goto	u123_20
  2021  0076                     u123_21:
  2022  0076  288E               	goto	i1l1680
  2023  0077                     u123_20:
  2024  0077                     i1l1672:
  2025  0077  1283               	bcf	3,5	;RP0=0, select bank0
  2026  0078  1303               	bcf	3,6	;RP1=0, select bank0
  2027  0079  0850               	movf	_TimeCount1,w
  2028  007A  1D03               	btfss	3,2
  2029  007B  287D               	goto	u124_21
  2030  007C  287E               	goto	u124_20
  2031  007D                     u124_21:
  2032  007D  288E               	goto	i1l1680
  2033  007E                     u124_20:
  2034  007E                     i1l1674:
  2035                           
  2036                           ;MainCode.c: 315:         };MainCode.c: 316: 
  2037  007E  120A  118A  25F4  120A  118A  	fcall	_SetTimePhase2Green
  2038  0083                     i1l1676:
  2039                           
  2040                           ;MainCode.c: 317: 
  2041  0083  3002               	movlw	2
  2042  0084  1283               	bcf	3,5	;RP0=0, select bank0
  2043  0085  1303               	bcf	3,6	;RP1=0, select bank0
  2044  0086  00A0               	movwf	??_ISR
  2045  0087  0820               	movf	??_ISR,w
  2046  0088  00FC               	movwf	_CurrentState
  2047  0089                     i1l1678:
  2048                           
  2049                           ;MainCode.c: 318:     }
  2050  0089  120A  118A  2637  120A  118A  	fcall	_SetLightPhase2Green
  2051  008E                     i1l1680:
  2052                           
  2053                           ;MainCode.c: 320: 
  2054  008E  3002               	movlw	2
  2055  008F  067C               	xorwf	_CurrentState,w
  2056  0090  1D03               	btfss	3,2
  2057  0091  2893               	goto	u125_21
  2058  0092  2894               	goto	u125_20
  2059  0093                     u125_21:
  2060  0093  28AB               	goto	i1l1690
  2061  0094                     u125_20:
  2062  0094                     i1l1682:
  2063  0094  1283               	bcf	3,5	;RP0=0, select bank0
  2064  0095  1303               	bcf	3,6	;RP1=0, select bank0
  2065  0096  084F               	movf	_TimeCount2,w
  2066  0097  1D03               	btfss	3,2
  2067  0098  289A               	goto	u126_21
  2068  0099  289B               	goto	u126_20
  2069  009A                     u126_21:
  2070  009A  28AB               	goto	i1l1690
  2071  009B                     u126_20:
  2072  009B                     i1l1684:
  2073                           
  2074                           ;MainCode.c: 321: ;MainCode.c: 322: 
  2075  009B  120A  118A  2616  120A  118A  	fcall	_SetTimePhase2Yellow
  2076  00A0                     i1l1686:
  2077                           
  2078                           ;MainCode.c: 323: 
  2079  00A0  3003               	movlw	3
  2080  00A1  1283               	bcf	3,5	;RP0=0, select bank0
  2081  00A2  1303               	bcf	3,6	;RP1=0, select bank0
  2082  00A3  00A0               	movwf	??_ISR
  2083  00A4  0820               	movf	??_ISR,w
  2084  00A5  00FC               	movwf	_CurrentState
  2085  00A6                     i1l1688:
  2086                           
  2087                           ;MainCode.c: 324: void main(void) {
  2088  00A6  120A  118A  262C  120A  118A  	fcall	_SetLightPhase2Yellow
  2089  00AB                     i1l1690:
  2090                           
  2091                           ;MainCode.c: 327:     OPTION_REGbits.nRBPU=0;
  2092  00AB  3003               	movlw	3
  2093  00AC  067C               	xorwf	_CurrentState,w
  2094  00AD  1D03               	btfss	3,2
  2095  00AE  28B0               	goto	u127_21
  2096  00AF  28B1               	goto	u127_20
  2097  00B0                     u127_21:
  2098  00B0  28C3               	goto	i1l1700
  2099  00B1                     u127_20:
  2100  00B1                     i1l1692:
  2101  00B1  1283               	bcf	3,5	;RP0=0, select bank0
  2102  00B2  1303               	bcf	3,6	;RP1=0, select bank0
  2103  00B3  084F               	movf	_TimeCount2,w
  2104  00B4  1D03               	btfss	3,2
  2105  00B5  28B7               	goto	u128_21
  2106  00B6  28B8               	goto	u128_20
  2107  00B7                     u128_21:
  2108  00B7  28C3               	goto	i1l1700
  2109  00B8                     u128_20:
  2110  00B8                     i1l1694:
  2111                           
  2112                           ;MainCode.c: 328:     ADCON1 = 0x0F;;MainCode.c: 329:     CMCON = 7;
  2113  00B8  120A  118A  25E8  120A  118A  	fcall	i1_SetTimePhase1Green
  2114  00BD                     i1l1696:
  2115                           
  2116                           ;MainCode.c: 330:     TRISD=0x00;
  2117  00BD  01FC               	clrf	_CurrentState
  2118  00BE                     i1l1698:
  2119                           
  2120                           ;MainCode.c: 331:     TRISC=0x00;
  2121  00BE  120A  118A  260B  120A  118A  	fcall	i1_SetLightPhase1Green
  2122  00C3                     i1l1700:
  2123                           
  2124                           ;MainCode.c: 334:     TRISE=0x00;
  2125  00C3  120A  118A  22F2  120A  118A  	fcall	i1_DecodeNumber
  2126                           
  2127                           ;MainCode.c: 335: 
  2128  00C8  2920               	goto	i1l1742
  2129  00C9                     i1l1702:
  2130                           
  2131                           ;MainCode.c: 338: ;MainCode.c: 339:     LEDData[0]=8;
  2132  00C9  033F               	decf	_NightLight,w
  2133  00CA  1D03               	btfss	3,2
  2134  00CB  28CD               	goto	u129_21
  2135  00CC  28CE               	goto	u129_20
  2136  00CD                     u129_21:
  2137  00CD  28F7               	goto	i1l159
  2138  00CE                     u129_20:
  2139  00CE                     i1l1704:
  2140                           
  2141                           ;MainCode.c: 340:     LEDData[1]=8;;MainCode.c: 341:     LEDData[2]=8;
  2142  00CE  01BF               	clrf	_NightLight
  2143  00CF                     i1l1706:
  2144                           
  2145                           ;MainCode.c: 342:     LEDData[3]=8;
  2146  00CF  120A  118A  264D  120A  118A  	fcall	_OnYellow
  2147  00D4                     i1l1708:
  2148                           
  2149                           ;MainCode.c: 343:     LEDData[4]=8;
  2150  00D4  300A               	movlw	10
  2151  00D5  1283               	bcf	3,5	;RP0=0, select bank0
  2152  00D6  1303               	bcf	3,6	;RP1=0, select bank0
  2153  00D7  00A0               	movwf	??_ISR
  2154  00D8  0820               	movf	??_ISR,w
  2155  00D9  00C3               	movwf	_LEDData
  2156  00DA                     i1l1710:
  2157                           
  2158                           ;MainCode.c: 344:     LEDData[5]=8;
  2159  00DA  300A               	movlw	10
  2160  00DB  00A0               	movwf	??_ISR
  2161  00DC  0820               	movf	??_ISR,w
  2162  00DD  00C4               	movwf	_LEDData+1
  2163  00DE                     i1l1712:
  2164                           
  2165                           ;MainCode.c: 345:     LEDData[6]=8;
  2166  00DE  300A               	movlw	10
  2167  00DF  00A0               	movwf	??_ISR
  2168  00E0  0820               	movf	??_ISR,w
  2169  00E1  00C5               	movwf	_LEDData+2
  2170  00E2                     i1l1714:
  2171                           
  2172                           ;MainCode.c: 346:     LEDData[7]=8;
  2173  00E2  300A               	movlw	10
  2174  00E3  00A0               	movwf	??_ISR
  2175  00E4  0820               	movf	??_ISR,w
  2176  00E5  00C6               	movwf	_LEDData+3
  2177  00E6                     i1l1716:
  2178                           
  2179                           ;MainCode.c: 347:     PORTA=0x00;
  2180  00E6  300A               	movlw	10
  2181  00E7  00A0               	movwf	??_ISR
  2182  00E8  0820               	movf	??_ISR,w
  2183  00E9  00C7               	movwf	_LEDData+4
  2184  00EA                     i1l1718:
  2185                           
  2186                           ;MainCode.c: 348:     PORTE=0x00;
  2187  00EA  300A               	movlw	10
  2188  00EB  00A0               	movwf	??_ISR
  2189  00EC  0820               	movf	??_ISR,w
  2190  00ED  00C8               	movwf	_LEDData+5
  2191  00EE                     i1l1720:
  2192                           
  2193                           ;MainCode.c: 349:     PORTB=0x00;
  2194  00EE  300A               	movlw	10
  2195  00EF  00A0               	movwf	??_ISR
  2196  00F0  0820               	movf	??_ISR,w
  2197  00F1  00C9               	movwf	_LEDData+6
  2198  00F2                     i1l1722:
  2199                           
  2200                           ;MainCode.c: 350: 
  2201  00F2  300A               	movlw	10
  2202  00F3  00A0               	movwf	??_ISR
  2203  00F4  0820               	movf	??_ISR,w
  2204  00F5  00CA               	movwf	_LEDData+7
  2205                           
  2206                           ;MainCode.c: 351:                     ;
  2207  00F6  2920               	goto	i1l1742
  2208  00F7                     i1l159:	
  2209                           ;MainCode.c: 352:     SetLightPhase1Green();
  2210                           
  2211                           
  2212                           ;MainCode.c: 353:     SetTimePhase1Green();;MainCode.c: 354:     DecodeNumber();
  2213  00F7  01BF               	clrf	_NightLight
  2214  00F8  0ABF               	incf	_NightLight,f
  2215  00F9                     i1l1724:
  2216                           
  2217                           ;MainCode.c: 355:     CurrentState=0;
  2218  00F9  120A  118A  2658  120A  118A  	fcall	_OffYellow
  2219  00FE                     i1l1726:
  2220                           
  2221                           ;MainCode.c: 356:     InitTimer0();
  2222  00FE  300B               	movlw	11
  2223  00FF  1283               	bcf	3,5	;RP0=0, select bank0
  2224  0100  1303               	bcf	3,6	;RP1=0, select bank0
  2225  0101  00A0               	movwf	??_ISR
  2226  0102  0820               	movf	??_ISR,w
  2227  0103  00C3               	movwf	_LEDData
  2228  0104                     i1l1728:
  2229                           
  2230                           ;MainCode.c: 357:     while(1)
  2231  0104  300B               	movlw	11
  2232  0105  00A0               	movwf	??_ISR
  2233  0106  0820               	movf	??_ISR,w
  2234  0107  00C4               	movwf	_LEDData+1
  2235  0108                     i1l1730:
  2236                           
  2237                           ;MainCode.c: 358:     {
  2238  0108  300B               	movlw	11
  2239  0109  00A0               	movwf	??_ISR
  2240  010A  0820               	movf	??_ISR,w
  2241  010B  00C5               	movwf	_LEDData+2
  2242  010C                     i1l1732:
  2243                           
  2244                           ;MainCode.c: 359:         Button=CheckButton();
  2245  010C  300B               	movlw	11
  2246  010D  00A0               	movwf	??_ISR
  2247  010E  0820               	movf	??_ISR,w
  2248  010F  00C6               	movwf	_LEDData+3
  2249  0110                     i1l1734:
  2250                           
  2251                           ;MainCode.c: 360:         if(Button==1)
  2252  0110  300B               	movlw	11
  2253  0111  00A0               	movwf	??_ISR
  2254  0112  0820               	movf	??_ISR,w
  2255  0113  00C7               	movwf	_LEDData+4
  2256  0114                     i1l1736:
  2257                           
  2258                           ;MainCode.c: 361:         { NightMode=1;
  2259  0114  300B               	movlw	11
  2260  0115  00A0               	movwf	??_ISR
  2261  0116  0820               	movf	??_ISR,w
  2262  0117  00C8               	movwf	_LEDData+5
  2263  0118                     i1l1738:
  2264                           
  2265                           ;MainCode.c: 362:             INTCONbits.TMR0IE=0;
  2266  0118  300B               	movlw	11
  2267  0119  00A0               	movwf	??_ISR
  2268  011A  0820               	movf	??_ISR,w
  2269  011B  00C9               	movwf	_LEDData+6
  2270  011C                     i1l1740:
  2271                           
  2272                           ;MainCode.c: 363:             Phase1GreenTime=20;
  2273  011C  300B               	movlw	11
  2274  011D  00A0               	movwf	??_ISR
  2275  011E  0820               	movf	??_ISR,w
  2276  011F  00CA               	movwf	_LEDData+7
  2277  0120                     i1l1742:
  2278                           
  2279                           ;MainCode.c: 372:             LEDData[3]=10;
  2280  0120  1283               	bcf	3,5	;RP0=0, select bank0
  2281  0121  1303               	bcf	3,6	;RP1=0, select bank0
  2282  0122  1C0C               	btfss	12,0	;volatile
  2283  0123  2925               	goto	u130_21
  2284  0124  2926               	goto	u130_20
  2285  0125                     u130_21:
  2286  0125  2947               	goto	i1l163
  2287  0126                     u130_20:
  2288  0126                     i1l1744:
  2289                           
  2290                           ;MainCode.c: 373:             LEDData[4]=10;;MainCode.c: 374:             LEDData[5]=10;
  2291  0126  100C               	bcf	12,0	;volatile
  2292  0127                     i1l1746:
  2293                           
  2294                           ;MainCode.c: 375:             LEDData[6]=10;
  2295  0127  3032               	movlw	50
  2296  0128  008E               	movwf	14	;volatile
  2297                           
  2298                           ;MainCode.c: 376:             LEDData[7]=10;
  2299  0129  30FF               	movlw	255
  2300  012A  008F               	movwf	15	;volatile
  2301                           
  2302                           ;MainCode.c: 377:                             ;
  2303  012B  3001               	movlw	1
  2304  012C  07CB               	addwf	_Timer1Count,f
  2305  012D  1803               	skipnc
  2306  012E  0ACC               	incf	_Timer1Count+1,f
  2307  012F  3000               	movlw	0
  2308  0130  07CC               	addwf	_Timer1Count+1,f
  2309  0131                     i1l1748:
  2310                           
  2311                           ;MainCode.c: 379:             INTCONbits.TMR0IE=1;
  2312  0131  084C               	movf	_Timer1Count+1,w
  2313  0132  3A80               	xorlw	128
  2314  0133  00FF               	movwf	btemp+1
  2315  0134  3080               	movlw	128
  2316  0135  027F               	subwf	btemp+1,w
  2317  0136  1D03               	skipz
  2318  0137  293A               	goto	u131_25
  2319  0138  3005               	movlw	5
  2320  0139  024B               	subwf	_Timer1Count,w
  2321  013A                     u131_25:
  2322  013A  1C03               	skipc
  2323  013B  293D               	goto	u131_21
  2324  013C  293E               	goto	u131_20
  2325  013D                     u131_21:
  2326  013D  2947               	goto	i1l163
  2327  013E                     u131_20:
  2328  013E                     i1l1750:
  2329                           
  2330                           ;MainCode.c: 380:         };MainCode.c: 381:         else if(Button==2)
  2331  013E  1283               	bcf	3,5	;RP0=0, select bank0
  2332  013F  1303               	bcf	3,6	;RP1=0, select bank0
  2333  0140  01CB               	clrf	_Timer1Count
  2334  0141  01CC               	clrf	_Timer1Count+1
  2335  0142                     i1l1752:
  2336                           
  2337                           ;MainCode.c: 382:         {
  2338  0142  120A  118A  2529  120A  118A  	fcall	_ScanLED
  2339  0147                     i1l163:
  2340  0147  1283               	bcf	3,5	;RP0=0, select bank0
  2341  0148  1303               	bcf	3,6	;RP1=0, select bank0
  2342  0149  0824               	movf	??_ISR+4,w
  2343  014A  00FF               	movwf	btemp+1
  2344  014B  0823               	movf	??_ISR+3,w
  2345  014C  008A               	movwf	10
  2346  014D  0822               	movf	??_ISR+2,w
  2347  014E  0084               	movwf	4
  2348  014F  0E21               	swapf	??_ISR+1,w
  2349  0150  0083               	movwf	3
  2350  0151  0EFE               	swapf	btemp,f
  2351  0152  0E7E               	swapf	btemp,w
  2352  0153  0009               	retfie
  2353  0154                     __end_of_ISR:
  2354                           
  2355                           	psect	intentry
  2356  0004                     __pintentry:	
  2357                           ;incstack = 0
  2358                           ; Regs used in _ISR: [wreg-fsr0h+status,2+status,0+btemp+1+pclath+cstack]
  2359                           
  2360  0004                     interrupt_function:
  2361  007E                     saved_w	set	btemp
  2362  0004  00FE               	movwf	btemp
  2363  0005  0E03               	swapf	3,w
  2364  0006  1283               	bcf	3,5	;RP0=0, select bank0
  2365  0007  1303               	bcf	3,6	;RP1=0, select bank0
  2366  0008  00A1               	movwf	??_ISR+1
  2367  0009  0804               	movf	4,w
  2368  000A  00A2               	movwf	??_ISR+2
  2369  000B  080A               	movf	10,w
  2370  000C  00A3               	movwf	??_ISR+3
  2371  000D  087F               	movf	btemp+1,w
  2372  000E  00A4               	movwf	??_ISR+4
  2373  000F  120A  118A  2835   	ljmp	_ISR
  2374                           
  2375                           	psect	text10
  2376  05E8                     __ptext10:	
  2377 ;; *************** function i1_SetTimePhase1Green *****************
  2378 ;; Defined at:
  2379 ;;		line 205 in file "MainCode.c"
  2380 ;; Parameters:    Size  Location     Type
  2381 ;;		None
  2382 ;; Auto vars:     Size  Location     Type
  2383 ;;		None
  2384 ;; Return value:  Size  Location     Type
  2385 ;;                  1    wreg      void 
  2386 ;; Registers used:
  2387 ;;		wreg, status,2, status,0
  2388 ;; Tracked objects:
  2389 ;;		On entry : 0/0
  2390 ;;		On exit  : 0/0
  2391 ;;		Unchanged: 0/0
  2392 ;; Data sizes:     COMMON   BANK0   BANK1   BANK3   BANK2
  2393 ;;      Params:         0       0       0       0       0
  2394 ;;      Locals:         0       0       0       0       0
  2395 ;;      Temps:          1       0       0       0       0
  2396 ;;      Totals:         1       0       0       0       0
  2397 ;;Total ram usage:        1 bytes
  2398 ;; Hardware stack levels used: 1
  2399 ;; This function calls:
  2400 ;;		Nothing
  2401 ;; This function is called by:
  2402 ;;		_ISR
  2403 ;; This function uses a non-reentrant model
  2404 ;;
  2405                           
  2406                           
  2407                           ;psect for function i1_SetTimePhase1Green
  2408  05E8                     i1_SetTimePhase1Green:
  2409  05E8                     i1l1646:	
  2410                           ;incstack = 0
  2411                           ; Regs used in i1_SetTimePhase1Green: [wreg+status,2+status,0]
  2412                           
  2413                           
  2414                           ;MainCode.c: 207: void InitTimer1()
  2415  05E8  1283               	bcf	3,5	;RP0=0, select bank0
  2416  05E9  1303               	bcf	3,6	;RP1=0, select bank0
  2417  05EA  0842               	movf	_Phase1GreenTime,w
  2418  05EB  00F0               	movwf	??i1_SetTimePhase1Green
  2419  05EC  0870               	movf	??i1_SetTimePhase1Green,w
  2420  05ED  00D0               	movwf	_TimeCount1
  2421  05EE                     i1l1648:
  2422                           
  2423                           ;MainCode.c: 208: {
  2424  05EE  0842               	movf	_Phase1GreenTime,w
  2425  05EF  3E03               	addlw	3
  2426  05F0  00F0               	movwf	??i1_SetTimePhase1Green
  2427  05F1  0870               	movf	??i1_SetTimePhase1Green,w
  2428  05F2  00CF               	movwf	_TimeCount2
  2429  05F3                     i1l125:
  2430  05F3  0008               	return
  2431  05F4                     __end_ofi1_SetTimePhase1Green:
  2432                           
  2433                           	psect	text11
  2434  060B                     __ptext11:	
  2435 ;; *************** function i1_SetLightPhase1Green *****************
  2436 ;; Defined at:
  2437 ;;		line 90 in file "MainCode.c"
  2438 ;; Parameters:    Size  Location     Type
  2439 ;;		None
  2440 ;; Auto vars:     Size  Location     Type
  2441 ;;		None
  2442 ;; Return value:  Size  Location     Type
  2443 ;;                  1    wreg      void 
  2444 ;; Registers used:
  2445 ;;		wreg
  2446 ;; Tracked objects:
  2447 ;;		On entry : 0/0
  2448 ;;		On exit  : 0/0
  2449 ;;		Unchanged: 0/0
  2450 ;; Data sizes:     COMMON   BANK0   BANK1   BANK3   BANK2
  2451 ;;      Params:         0       0       0       0       0
  2452 ;;      Locals:         0       0       0       0       0
  2453 ;;      Temps:          0       0       0       0       0
  2454 ;;      Totals:         0       0       0       0       0
  2455 ;;Total ram usage:        0 bytes
  2456 ;; Hardware stack levels used: 1
  2457 ;; This function calls:
  2458 ;;		Nothing
  2459 ;; This function is called by:
  2460 ;;		_ISR
  2461 ;; This function uses a non-reentrant model
  2462 ;;
  2463                           
  2464                           
  2465                           ;psect for function i1_SetLightPhase1Green
  2466  060B                     i1_SetLightPhase1Green:
  2467  060B                     i1l1634:	
  2468                           ;incstack = 0
  2469                           ; Regs used in i1_SetLightPhase1Green: [wreg]
  2470                           
  2471                           
  2472                           ;MainCode.c: 92:   {
  2473  060B  30FB               	movlw	251
  2474  060C  1283               	bcf	3,5	;RP0=0, select bank0
  2475  060D  1303               	bcf	3,6	;RP1=0, select bank0
  2476  060E  0085               	movwf	5	;volatile
  2477                           
  2478                           ;MainCode.c: 93:                    ;
  2479  060F  30FC               	movlw	252
  2480  0610  0089               	movwf	9	;volatile
  2481  0611                     i1l1636:
  2482                           
  2483                           ;MainCode.c: 95: 
  2484  0611  1486               	bsf	6,1	;volatile
  2485  0612                     i1l1638:
  2486                           
  2487                           ;MainCode.c: 96:   }
  2488  0612  1106               	bcf	6,2	;volatile
  2489  0613                     i1l1640:
  2490                           
  2491                           ;MainCode.c: 97: 
  2492  0613  1686               	bsf	6,5	;volatile
  2493  0614                     i1l1642:
  2494                           
  2495                           ;MainCode.c: 98:    return 0;
  2496  0614  1606               	bsf	6,4	;volatile
  2497  0615                     i1l85:
  2498  0615  0008               	return
  2499  0616                     __end_ofi1_SetLightPhase1Green:
  2500                           
  2501                           	psect	text12
  2502  02F2                     __ptext12:	
  2503 ;; *************** function i1_DecodeNumber *****************
  2504 ;; Defined at:
  2505 ;;		line 188 in file "MainCode.c"
  2506 ;; Parameters:    Size  Location     Type
  2507 ;;		None
  2508 ;; Auto vars:     Size  Location     Type
  2509 ;;		None
  2510 ;; Return value:  Size  Location     Type
  2511 ;;                  1    wreg      void 
  2512 ;; Registers used:
  2513 ;;		wreg, status,2, status,0, pclath, cstack
  2514 ;; Tracked objects:
  2515 ;;		On entry : 0/0
  2516 ;;		On exit  : 0/0
  2517 ;;		Unchanged: 0/0
  2518 ;; Data sizes:     COMMON   BANK0   BANK1   BANK3   BANK2
  2519 ;;      Params:         0       0       0       0       0
  2520 ;;      Locals:         0       0       0       0       0
  2521 ;;      Temps:          3       0       0       0       0
  2522 ;;      Totals:         3       0       0       0       0
  2523 ;;Total ram usage:        3 bytes
  2524 ;; Hardware stack levels used: 1
  2525 ;; Hardware stack levels required when called: 1
  2526 ;; This function calls:
  2527 ;;		i1___awdiv
  2528 ;;		i1___awmod
  2529 ;; This function is called by:
  2530 ;;		_ISR
  2531 ;; This function uses a non-reentrant model
  2532 ;;
  2533                           
  2534                           
  2535                           ;psect for function i1_DecodeNumber
  2536  02F2                     i1_DecodeNumber:
  2537  02F2                     i1l1644:	
  2538                           ;incstack = 0
  2539                           ; Regs used in i1_DecodeNumber: [wreg+status,2+status,0+pclath+cstack]
  2540                           
  2541                           
  2542                           ;MainCode.c: 190: 
  2543  02F2  300A               	movlw	10
  2544  02F3  00F0               	movwf	i1___awdiv@divisor
  2545  02F4  3000               	movlw	0
  2546  02F5  00F1               	movwf	i1___awdiv@divisor+1
  2547  02F6  1283               	bcf	3,5	;RP0=0, select bank0
  2548  02F7  1303               	bcf	3,6	;RP1=0, select bank0
  2549  02F8  0850               	movf	_TimeCount1,w
  2550  02F9  00F9               	movwf	??i1_DecodeNumber
  2551  02FA  01FA               	clrf	??i1_DecodeNumber+1
  2552  02FB  0879               	movf	??i1_DecodeNumber,w
  2553  02FC  00F2               	movwf	i1___awdiv@dividend
  2554  02FD  087A               	movf	??i1_DecodeNumber+1,w
  2555  02FE  00F3               	movwf	i1___awdiv@dividend+1
  2556  02FF  120A  118A  240E  120A  118A  	fcall	i1___awdiv
  2557  0304  0870               	movf	?i1___awdiv,w
  2558  0305  00FB               	movwf	??i1_DecodeNumber+2
  2559  0306  087B               	movf	??i1_DecodeNumber+2,w
  2560  0307  1283               	bcf	3,5	;RP0=0, select bank0
  2561  0308  1303               	bcf	3,6	;RP1=0, select bank0
  2562  0309  00C3               	movwf	_LEDData
  2563                           
  2564                           ;MainCode.c: 191: 
  2565  030A  300A               	movlw	10
  2566  030B  00F0               	movwf	i1___awmod@divisor
  2567  030C  3000               	movlw	0
  2568  030D  00F1               	movwf	i1___awmod@divisor+1
  2569  030E  0850               	movf	_TimeCount1,w
  2570  030F  00F9               	movwf	??i1_DecodeNumber
  2571  0310  01FA               	clrf	??i1_DecodeNumber+1
  2572  0311  0879               	movf	??i1_DecodeNumber,w
  2573  0312  00F2               	movwf	i1___awmod@dividend
  2574  0313  087A               	movf	??i1_DecodeNumber+1,w
  2575  0314  00F3               	movwf	i1___awmod@dividend+1
  2576  0315  120A  118A  24D0  120A  118A  	fcall	i1___awmod
  2577  031A  0870               	movf	?i1___awmod,w
  2578  031B  00FB               	movwf	??i1_DecodeNumber+2
  2579  031C  087B               	movf	??i1_DecodeNumber+2,w
  2580  031D  1283               	bcf	3,5	;RP0=0, select bank0
  2581  031E  1303               	bcf	3,6	;RP1=0, select bank0
  2582  031F  00C4               	movwf	_LEDData+1
  2583                           
  2584                           ;MainCode.c: 193: void InitTimer0()
  2585  0320  300A               	movlw	10
  2586  0321  00F0               	movwf	i1___awdiv@divisor
  2587  0322  3000               	movlw	0
  2588  0323  00F1               	movwf	i1___awdiv@divisor+1
  2589  0324  0850               	movf	_TimeCount1,w
  2590  0325  00F9               	movwf	??i1_DecodeNumber
  2591  0326  01FA               	clrf	??i1_DecodeNumber+1
  2592  0327  0879               	movf	??i1_DecodeNumber,w
  2593  0328  00F2               	movwf	i1___awdiv@dividend
  2594  0329  087A               	movf	??i1_DecodeNumber+1,w
  2595  032A  00F3               	movwf	i1___awdiv@dividend+1
  2596  032B  120A  118A  240E  120A  118A  	fcall	i1___awdiv
  2597  0330  0870               	movf	?i1___awdiv,w
  2598  0331  00FB               	movwf	??i1_DecodeNumber+2
  2599  0332  087B               	movf	??i1_DecodeNumber+2,w
  2600  0333  1283               	bcf	3,5	;RP0=0, select bank0
  2601  0334  1303               	bcf	3,6	;RP1=0, select bank0
  2602  0335  00C5               	movwf	_LEDData+2
  2603                           
  2604                           ;MainCode.c: 194: {
  2605  0336  300A               	movlw	10
  2606  0337  00F0               	movwf	i1___awmod@divisor
  2607  0338  3000               	movlw	0
  2608  0339  00F1               	movwf	i1___awmod@divisor+1
  2609  033A  0850               	movf	_TimeCount1,w
  2610  033B  00F9               	movwf	??i1_DecodeNumber
  2611  033C  01FA               	clrf	??i1_DecodeNumber+1
  2612  033D  0879               	movf	??i1_DecodeNumber,w
  2613  033E  00F2               	movwf	i1___awmod@dividend
  2614  033F  087A               	movf	??i1_DecodeNumber+1,w
  2615  0340  00F3               	movwf	i1___awmod@dividend+1
  2616  0341  120A  118A  24D0  120A  118A  	fcall	i1___awmod
  2617  0346  0870               	movf	?i1___awmod,w
  2618  0347  00FB               	movwf	??i1_DecodeNumber+2
  2619  0348  087B               	movf	??i1_DecodeNumber+2,w
  2620  0349  1283               	bcf	3,5	;RP0=0, select bank0
  2621  034A  1303               	bcf	3,6	;RP1=0, select bank0
  2622  034B  00C6               	movwf	_LEDData+3
  2623                           
  2624                           ;MainCode.c: 196:     OPTION_REGbits.PSA = 0;
  2625  034C  300A               	movlw	10
  2626  034D  00F0               	movwf	i1___awdiv@divisor
  2627  034E  3000               	movlw	0
  2628  034F  00F1               	movwf	i1___awdiv@divisor+1
  2629  0350  084F               	movf	_TimeCount2,w
  2630  0351  00F9               	movwf	??i1_DecodeNumber
  2631  0352  01FA               	clrf	??i1_DecodeNumber+1
  2632  0353  0879               	movf	??i1_DecodeNumber,w
  2633  0354  00F2               	movwf	i1___awdiv@dividend
  2634  0355  087A               	movf	??i1_DecodeNumber+1,w
  2635  0356  00F3               	movwf	i1___awdiv@dividend+1
  2636  0357  120A  118A  240E  120A  118A  	fcall	i1___awdiv
  2637  035C  0870               	movf	?i1___awdiv,w
  2638  035D  00FB               	movwf	??i1_DecodeNumber+2
  2639  035E  087B               	movf	??i1_DecodeNumber+2,w
  2640  035F  1283               	bcf	3,5	;RP0=0, select bank0
  2641  0360  1303               	bcf	3,6	;RP1=0, select bank0
  2642  0361  00C7               	movwf	_LEDData+4
  2643                           
  2644                           ;MainCode.c: 197:     OPTION_REGbits.PS2=0;
  2645  0362  300A               	movlw	10
  2646  0363  00F0               	movwf	i1___awmod@divisor
  2647  0364  3000               	movlw	0
  2648  0365  00F1               	movwf	i1___awmod@divisor+1
  2649  0366  084F               	movf	_TimeCount2,w
  2650  0367  00F9               	movwf	??i1_DecodeNumber
  2651  0368  01FA               	clrf	??i1_DecodeNumber+1
  2652  0369  0879               	movf	??i1_DecodeNumber,w
  2653  036A  00F2               	movwf	i1___awmod@dividend
  2654  036B  087A               	movf	??i1_DecodeNumber+1,w
  2655  036C  00F3               	movwf	i1___awmod@dividend+1
  2656  036D  120A  118A  24D0  120A  118A  	fcall	i1___awmod
  2657  0372  0870               	movf	?i1___awmod,w
  2658  0373  00FB               	movwf	??i1_DecodeNumber+2
  2659  0374  087B               	movf	??i1_DecodeNumber+2,w
  2660  0375  1283               	bcf	3,5	;RP0=0, select bank0
  2661  0376  1303               	bcf	3,6	;RP1=0, select bank0
  2662  0377  00C8               	movwf	_LEDData+5
  2663                           
  2664                           ;MainCode.c: 199:     OPTION_REGbits.PS0=1;
  2665  0378  300A               	movlw	10
  2666  0379  00F0               	movwf	i1___awdiv@divisor
  2667  037A  3000               	movlw	0
  2668  037B  00F1               	movwf	i1___awdiv@divisor+1
  2669  037C  084F               	movf	_TimeCount2,w
  2670  037D  00F9               	movwf	??i1_DecodeNumber
  2671  037E  01FA               	clrf	??i1_DecodeNumber+1
  2672  037F  0879               	movf	??i1_DecodeNumber,w
  2673  0380  00F2               	movwf	i1___awdiv@dividend
  2674  0381  087A               	movf	??i1_DecodeNumber+1,w
  2675  0382  00F3               	movwf	i1___awdiv@dividend+1
  2676  0383  120A  118A  240E  120A  118A  	fcall	i1___awdiv
  2677  0388  0870               	movf	?i1___awdiv,w
  2678  0389  00FB               	movwf	??i1_DecodeNumber+2
  2679  038A  087B               	movf	??i1_DecodeNumber+2,w
  2680  038B  1283               	bcf	3,5	;RP0=0, select bank0
  2681  038C  1303               	bcf	3,6	;RP1=0, select bank0
  2682  038D  00C9               	movwf	_LEDData+6
  2683                           
  2684                           ;MainCode.c: 200:     TMR0=6;
  2685  038E  300A               	movlw	10
  2686  038F  00F0               	movwf	i1___awmod@divisor
  2687  0390  3000               	movlw	0
  2688  0391  00F1               	movwf	i1___awmod@divisor+1
  2689  0392  084F               	movf	_TimeCount2,w
  2690  0393  00F9               	movwf	??i1_DecodeNumber
  2691  0394  01FA               	clrf	??i1_DecodeNumber+1
  2692  0395  0879               	movf	??i1_DecodeNumber,w
  2693  0396  00F2               	movwf	i1___awmod@dividend
  2694  0397  087A               	movf	??i1_DecodeNumber+1,w
  2695  0398  00F3               	movwf	i1___awmod@dividend+1
  2696  0399  120A  118A  24D0  120A  118A  	fcall	i1___awmod
  2697  039E  0870               	movf	?i1___awmod,w
  2698  039F  00FB               	movwf	??i1_DecodeNumber+2
  2699  03A0  087B               	movf	??i1_DecodeNumber+2,w
  2700  03A1  1283               	bcf	3,5	;RP0=0, select bank0
  2701  03A2  1303               	bcf	3,6	;RP1=0, select bank0
  2702  03A3  00CA               	movwf	_LEDData+7
  2703  03A4                     i1l122:
  2704  03A4  0008               	return
  2705  03A5                     __end_ofi1_DecodeNumber:
  2706                           
  2707                           	psect	text13
  2708  04D0                     __ptext13:	
  2709 ;; *************** function i1___awmod *****************
  2710 ;; Defined at:
  2711 ;;		line 5 in file "E:\Program Files\Microchip\xc8\v2.32\pic\sources\c90\common\awmod.c"
  2712 ;; Parameters:    Size  Location     Type
  2713 ;;  divisor         2    0[COMMON] int 
  2714 ;;  dividend        2    2[COMMON] int 
  2715 ;; Auto vars:     Size  Location     Type
  2716 ;;  sign            1    6[COMMON] unsigned char 
  2717 ;;  counter         1    5[COMMON] unsigned char 
  2718 ;; Return value:  Size  Location     Type
  2719 ;;                  2    0[COMMON] int 
  2720 ;; Registers used:
  2721 ;;		wreg, status,2, status,0
  2722 ;; Tracked objects:
  2723 ;;		On entry : 0/0
  2724 ;;		On exit  : 0/0
  2725 ;;		Unchanged: 0/0
  2726 ;; Data sizes:     COMMON   BANK0   BANK1   BANK3   BANK2
  2727 ;;      Params:         4       0       0       0       0
  2728 ;;      Locals:         2       0       0       0       0
  2729 ;;      Temps:          1       0       0       0       0
  2730 ;;      Totals:         7       0       0       0       0
  2731 ;;Total ram usage:        7 bytes
  2732 ;; Hardware stack levels used: 1
  2733 ;; This function calls:
  2734 ;;		Nothing
  2735 ;; This function is called by:
  2736 ;;		i1_DecodeNumber
  2737 ;; This function uses a non-reentrant model
  2738 ;;
  2739                           
  2740                           
  2741                           ;psect for function i1___awmod
  2742  04D0                     i1___awmod:
  2743  04D0                     i1l1446:	
  2744                           ;incstack = 0
  2745                           ; Regs used in i1___awmod: [wreg+status,2+status,0]
  2746                           
  2747  04D0  01F6               	clrf	i1___awmod@sign
  2748  04D1                     i1l1448:
  2749  04D1  1FF3               	btfss	i1___awmod@dividend+1,7
  2750  04D2  2CD4               	goto	u97_21
  2751  04D3  2CD5               	goto	u97_20
  2752  04D4                     u97_21:
  2753  04D4  2CDC               	goto	i1l1454
  2754  04D5                     u97_20:
  2755  04D5                     i1l1450:
  2756  04D5  09F2               	comf	i1___awmod@dividend,f
  2757  04D6  09F3               	comf	i1___awmod@dividend+1,f
  2758  04D7  0AF2               	incf	i1___awmod@dividend,f
  2759  04D8  1903               	skipnz
  2760  04D9  0AF3               	incf	i1___awmod@dividend+1,f
  2761  04DA                     i1l1452:
  2762  04DA  01F6               	clrf	i1___awmod@sign
  2763  04DB  0AF6               	incf	i1___awmod@sign,f
  2764  04DC                     i1l1454:
  2765  04DC  1FF1               	btfss	i1___awmod@divisor+1,7
  2766  04DD  2CDF               	goto	u98_21
  2767  04DE  2CE0               	goto	u98_20
  2768  04DF                     u98_21:
  2769  04DF  2CE5               	goto	i1l1458
  2770  04E0                     u98_20:
  2771  04E0                     i1l1456:
  2772  04E0  09F0               	comf	i1___awmod@divisor,f
  2773  04E1  09F1               	comf	i1___awmod@divisor+1,f
  2774  04E2  0AF0               	incf	i1___awmod@divisor,f
  2775  04E3  1903               	skipnz
  2776  04E4  0AF1               	incf	i1___awmod@divisor+1,f
  2777  04E5                     i1l1458:
  2778  04E5  0870               	movf	i1___awmod@divisor,w
  2779  04E6  0471               	iorwf	i1___awmod@divisor+1,w
  2780  04E7  1903               	btfsc	3,2
  2781  04E8  2CEA               	goto	u99_21
  2782  04E9  2CEB               	goto	u99_20
  2783  04EA                     u99_21:
  2784  04EA  2D1A               	goto	i1l1476
  2785  04EB                     u99_20:
  2786  04EB                     i1l1460:
  2787  04EB  01F5               	clrf	i1___awmod@counter
  2788  04EC  0AF5               	incf	i1___awmod@counter,f
  2789  04ED  2CF9               	goto	i1l1466
  2790  04EE                     i1l1462:
  2791  04EE  3001               	movlw	1
  2792  04EF                     u100_25:
  2793  04EF  1003               	clrc
  2794  04F0  0DF0               	rlf	i1___awmod@divisor,f
  2795  04F1  0DF1               	rlf	i1___awmod@divisor+1,f
  2796  04F2  3EFF               	addlw	-1
  2797  04F3  1D03               	skipz
  2798  04F4  2CEF               	goto	u100_25
  2799  04F5                     i1l1464:
  2800  04F5  3001               	movlw	1
  2801  04F6  00F4               	movwf	??i1___awmod
  2802  04F7  0874               	movf	??i1___awmod,w
  2803  04F8  07F5               	addwf	i1___awmod@counter,f
  2804  04F9                     i1l1466:
  2805  04F9  1FF1               	btfss	i1___awmod@divisor+1,7
  2806  04FA  2CFC               	goto	u101_21
  2807  04FB  2CFD               	goto	u101_20
  2808  04FC                     u101_21:
  2809  04FC  2CEE               	goto	i1l1462
  2810  04FD                     u101_20:
  2811  04FD                     i1l1468:
  2812  04FD  0871               	movf	i1___awmod@divisor+1,w
  2813  04FE  0273               	subwf	i1___awmod@dividend+1,w
  2814  04FF  1D03               	skipz
  2815  0500  2D03               	goto	u102_25
  2816  0501  0870               	movf	i1___awmod@divisor,w
  2817  0502  0272               	subwf	i1___awmod@dividend,w
  2818  0503                     u102_25:
  2819  0503  1C03               	skipc
  2820  0504  2D06               	goto	u102_21
  2821  0505  2D07               	goto	u102_20
  2822  0506                     u102_21:
  2823  0506  2D0D               	goto	i1l1472
  2824  0507                     u102_20:
  2825  0507                     i1l1470:
  2826  0507  0870               	movf	i1___awmod@divisor,w
  2827  0508  02F2               	subwf	i1___awmod@dividend,f
  2828  0509  0871               	movf	i1___awmod@divisor+1,w
  2829  050A  1C03               	skipc
  2830  050B  03F3               	decf	i1___awmod@dividend+1,f
  2831  050C  02F3               	subwf	i1___awmod@dividend+1,f
  2832  050D                     i1l1472:
  2833  050D  3001               	movlw	1
  2834  050E                     u103_25:
  2835  050E  1003               	clrc
  2836  050F  0CF1               	rrf	i1___awmod@divisor+1,f
  2837  0510  0CF0               	rrf	i1___awmod@divisor,f
  2838  0511  3EFF               	addlw	-1
  2839  0512  1D03               	skipz
  2840  0513  2D0E               	goto	u103_25
  2841  0514                     i1l1474:
  2842  0514  3001               	movlw	1
  2843  0515  02F5               	subwf	i1___awmod@counter,f
  2844  0516  1D03               	btfss	3,2
  2845  0517  2D19               	goto	u104_21
  2846  0518  2D1A               	goto	u104_20
  2847  0519                     u104_21:
  2848  0519  2CFD               	goto	i1l1468
  2849  051A                     u104_20:
  2850  051A                     i1l1476:
  2851  051A  0876               	movf	i1___awmod@sign,w
  2852  051B  1903               	btfsc	3,2
  2853  051C  2D1E               	goto	u105_21
  2854  051D  2D1F               	goto	u105_20
  2855  051E                     u105_21:
  2856  051E  2D24               	goto	i1l1480
  2857  051F                     u105_20:
  2858  051F                     i1l1478:
  2859  051F  09F2               	comf	i1___awmod@dividend,f
  2860  0520  09F3               	comf	i1___awmod@dividend+1,f
  2861  0521  0AF2               	incf	i1___awmod@dividend,f
  2862  0522  1903               	skipnz
  2863  0523  0AF3               	incf	i1___awmod@dividend+1,f
  2864  0524                     i1l1480:
  2865  0524  0873               	movf	i1___awmod@dividend+1,w
  2866  0525  00F1               	movwf	?i1___awmod+1
  2867  0526  0872               	movf	i1___awmod@dividend,w
  2868  0527  00F0               	movwf	?i1___awmod
  2869  0528                     i1l428:
  2870  0528  0008               	return
  2871  0529                     __end_ofi1___awmod:
  2872                           
  2873                           	psect	text14
  2874  040E                     __ptext14:	
  2875 ;; *************** function i1___awdiv *****************
  2876 ;; Defined at:
  2877 ;;		line 5 in file "E:\Program Files\Microchip\xc8\v2.32\pic\sources\c90\common\awdiv.c"
  2878 ;; Parameters:    Size  Location     Type
  2879 ;;  divisor         2    0[COMMON] int 
  2880 ;;  dividend        2    2[COMMON] int 
  2881 ;; Auto vars:     Size  Location     Type
  2882 ;;  quotient        2    7[COMMON] int 
  2883 ;;  sign            1    6[COMMON] unsigned char 
  2884 ;;  counter         1    5[COMMON] unsigned char 
  2885 ;; Return value:  Size  Location     Type
  2886 ;;                  2    0[COMMON] int 
  2887 ;; Registers used:
  2888 ;;		wreg, status,2, status,0
  2889 ;; Tracked objects:
  2890 ;;		On entry : 0/0
  2891 ;;		On exit  : 0/0
  2892 ;;		Unchanged: 0/0
  2893 ;; Data sizes:     COMMON   BANK0   BANK1   BANK3   BANK2
  2894 ;;      Params:         4       0       0       0       0
  2895 ;;      Locals:         4       0       0       0       0
  2896 ;;      Temps:          1       0       0       0       0
  2897 ;;      Totals:         9       0       0       0       0
  2898 ;;Total ram usage:        9 bytes
  2899 ;; Hardware stack levels used: 1
  2900 ;; This function calls:
  2901 ;;		Nothing
  2902 ;; This function is called by:
  2903 ;;		i1_DecodeNumber
  2904 ;; This function uses a non-reentrant model
  2905 ;;
  2906                           
  2907                           
  2908                           ;psect for function i1___awdiv
  2909  040E                     i1___awdiv:
  2910  040E                     i1l1402:	
  2911                           ;incstack = 0
  2912                           ; Regs used in i1___awdiv: [wreg+status,2+status,0]
  2913                           
  2914  040E  01F6               	clrf	i1___awdiv@sign
  2915  040F                     i1l1404:
  2916  040F  1FF1               	btfss	i1___awdiv@divisor+1,7
  2917  0410  2C12               	goto	u87_21
  2918  0411  2C13               	goto	u87_20
  2919  0412                     u87_21:
  2920  0412  2C1A               	goto	i1l1410
  2921  0413                     u87_20:
  2922  0413                     i1l1406:
  2923  0413  09F0               	comf	i1___awdiv@divisor,f
  2924  0414  09F1               	comf	i1___awdiv@divisor+1,f
  2925  0415  0AF0               	incf	i1___awdiv@divisor,f
  2926  0416  1903               	skipnz
  2927  0417  0AF1               	incf	i1___awdiv@divisor+1,f
  2928  0418                     i1l1408:
  2929  0418  01F6               	clrf	i1___awdiv@sign
  2930  0419  0AF6               	incf	i1___awdiv@sign,f
  2931  041A                     i1l1410:
  2932  041A  1FF3               	btfss	i1___awdiv@dividend+1,7
  2933  041B  2C1D               	goto	u88_21
  2934  041C  2C1E               	goto	u88_20
  2935  041D                     u88_21:
  2936  041D  2C27               	goto	i1l1416
  2937  041E                     u88_20:
  2938  041E                     i1l1412:
  2939  041E  09F2               	comf	i1___awdiv@dividend,f
  2940  041F  09F3               	comf	i1___awdiv@dividend+1,f
  2941  0420  0AF2               	incf	i1___awdiv@dividend,f
  2942  0421  1903               	skipnz
  2943  0422  0AF3               	incf	i1___awdiv@dividend+1,f
  2944  0423                     i1l1414:
  2945  0423  3001               	movlw	1
  2946  0424  00F4               	movwf	??i1___awdiv
  2947  0425  0874               	movf	??i1___awdiv,w
  2948  0426  06F6               	xorwf	i1___awdiv@sign,f
  2949  0427                     i1l1416:
  2950  0427  01F7               	clrf	i1___awdiv@quotient
  2951  0428  01F8               	clrf	i1___awdiv@quotient+1
  2952  0429                     i1l1418:
  2953  0429  0870               	movf	i1___awdiv@divisor,w
  2954  042A  0471               	iorwf	i1___awdiv@divisor+1,w
  2955  042B  1903               	btfsc	3,2
  2956  042C  2C2E               	goto	u89_21
  2957  042D  2C2F               	goto	u89_20
  2958  042E                     u89_21:
  2959  042E  2C66               	goto	i1l1438
  2960  042F                     u89_20:
  2961  042F                     i1l1420:
  2962  042F  01F5               	clrf	i1___awdiv@counter
  2963  0430  0AF5               	incf	i1___awdiv@counter,f
  2964  0431  2C3D               	goto	i1l1426
  2965  0432                     i1l1422:
  2966  0432  3001               	movlw	1
  2967  0433                     u90_25:
  2968  0433  1003               	clrc
  2969  0434  0DF0               	rlf	i1___awdiv@divisor,f
  2970  0435  0DF1               	rlf	i1___awdiv@divisor+1,f
  2971  0436  3EFF               	addlw	-1
  2972  0437  1D03               	skipz
  2973  0438  2C33               	goto	u90_25
  2974  0439                     i1l1424:
  2975  0439  3001               	movlw	1
  2976  043A  00F4               	movwf	??i1___awdiv
  2977  043B  0874               	movf	??i1___awdiv,w
  2978  043C  07F5               	addwf	i1___awdiv@counter,f
  2979  043D                     i1l1426:
  2980  043D  1FF1               	btfss	i1___awdiv@divisor+1,7
  2981  043E  2C40               	goto	u91_21
  2982  043F  2C41               	goto	u91_20
  2983  0440                     u91_21:
  2984  0440  2C32               	goto	i1l1422
  2985  0441                     u91_20:
  2986  0441                     i1l1428:
  2987  0441  3001               	movlw	1
  2988  0442                     u92_25:
  2989  0442  1003               	clrc
  2990  0443  0DF7               	rlf	i1___awdiv@quotient,f
  2991  0444  0DF8               	rlf	i1___awdiv@quotient+1,f
  2992  0445  3EFF               	addlw	-1
  2993  0446  1D03               	skipz
  2994  0447  2C42               	goto	u92_25
  2995  0448  0871               	movf	i1___awdiv@divisor+1,w
  2996  0449  0273               	subwf	i1___awdiv@dividend+1,w
  2997  044A  1D03               	skipz
  2998  044B  2C4E               	goto	u93_25
  2999  044C  0870               	movf	i1___awdiv@divisor,w
  3000  044D  0272               	subwf	i1___awdiv@dividend,w
  3001  044E                     u93_25:
  3002  044E  1C03               	skipc
  3003  044F  2C51               	goto	u93_21
  3004  0450  2C52               	goto	u93_20
  3005  0451                     u93_21:
  3006  0451  2C59               	goto	i1l1434
  3007  0452                     u93_20:
  3008  0452                     i1l1430:
  3009  0452  0870               	movf	i1___awdiv@divisor,w
  3010  0453  02F2               	subwf	i1___awdiv@dividend,f
  3011  0454  0871               	movf	i1___awdiv@divisor+1,w
  3012  0455  1C03               	skipc
  3013  0456  03F3               	decf	i1___awdiv@dividend+1,f
  3014  0457  02F3               	subwf	i1___awdiv@dividend+1,f
  3015  0458                     i1l1432:
  3016  0458  1477               	bsf	i1___awdiv@quotient,0
  3017  0459                     i1l1434:
  3018  0459  3001               	movlw	1
  3019  045A                     u94_25:
  3020  045A  1003               	clrc
  3021  045B  0CF1               	rrf	i1___awdiv@divisor+1,f
  3022  045C  0CF0               	rrf	i1___awdiv@divisor,f
  3023  045D  3EFF               	addlw	-1
  3024  045E  1D03               	skipz
  3025  045F  2C5A               	goto	u94_25
  3026  0460                     i1l1436:
  3027  0460  3001               	movlw	1
  3028  0461  02F5               	subwf	i1___awdiv@counter,f
  3029  0462  1D03               	btfss	3,2
  3030  0463  2C65               	goto	u95_21
  3031  0464  2C66               	goto	u95_20
  3032  0465                     u95_21:
  3033  0465  2C41               	goto	i1l1428
  3034  0466                     u95_20:
  3035  0466                     i1l1438:
  3036  0466  0876               	movf	i1___awdiv@sign,w
  3037  0467  1903               	btfsc	3,2
  3038  0468  2C6A               	goto	u96_21
  3039  0469  2C6B               	goto	u96_20
  3040  046A                     u96_21:
  3041  046A  2C70               	goto	i1l1442
  3042  046B                     u96_20:
  3043  046B                     i1l1440:
  3044  046B  09F7               	comf	i1___awdiv@quotient,f
  3045  046C  09F8               	comf	i1___awdiv@quotient+1,f
  3046  046D  0AF7               	incf	i1___awdiv@quotient,f
  3047  046E  1903               	skipnz
  3048  046F  0AF8               	incf	i1___awdiv@quotient+1,f
  3049  0470                     i1l1442:
  3050  0470  0878               	movf	i1___awdiv@quotient+1,w
  3051  0471  00F1               	movwf	?i1___awdiv+1
  3052  0472  0877               	movf	i1___awdiv@quotient,w
  3053  0473  00F0               	movwf	?i1___awdiv
  3054  0474                     i1l415:
  3055  0474  0008               	return
  3056  0475                     __end_ofi1___awdiv:
  3057                           
  3058                           	psect	text15
  3059  0616                     __ptext15:	
  3060 ;; *************** function _SetTimePhase2Yellow *****************
  3061 ;; Defined at:
  3062 ;;		line 226 in file "MainCode.c"
  3063 ;; Parameters:    Size  Location     Type
  3064 ;;		None
  3065 ;; Auto vars:     Size  Location     Type
  3066 ;;		None
  3067 ;; Return value:  Size  Location     Type
  3068 ;;                  1    wreg      void 
  3069 ;; Registers used:
  3070 ;;		wreg
  3071 ;; Tracked objects:
  3072 ;;		On entry : 0/0
  3073 ;;		On exit  : 0/0
  3074 ;;		Unchanged: 0/0
  3075 ;; Data sizes:     COMMON   BANK0   BANK1   BANK3   BANK2
  3076 ;;      Params:         0       0       0       0       0
  3077 ;;      Locals:         0       0       0       0       0
  3078 ;;      Temps:          1       0       0       0       0
  3079 ;;      Totals:         1       0       0       0       0
  3080 ;;Total ram usage:        1 bytes
  3081 ;; Hardware stack levels used: 1
  3082 ;; This function calls:
  3083 ;;		Nothing
  3084 ;; This function is called by:
  3085 ;;		_ISR
  3086 ;; This function uses a non-reentrant model
  3087 ;;
  3088                           
  3089                           
  3090                           ;psect for function _SetTimePhase2Yellow
  3091  0616                     _SetTimePhase2Yellow:
  3092  0616                     i1l1594:	
  3093                           ;incstack = 0
  3094                           ; Regs used in _SetTimePhase2Yellow: [wreg]
  3095                           
  3096                           
  3097                           ;MainCode.c: 228:         Timer0Count++;
  3098  0616  3003               	movlw	3
  3099  0617  00F0               	movwf	??_SetTimePhase2Yellow
  3100  0618  0870               	movf	??_SetTimePhase2Yellow,w
  3101  0619  1283               	bcf	3,5	;RP0=0, select bank0
  3102  061A  1303               	bcf	3,6	;RP1=0, select bank0
  3103  061B  00D0               	movwf	_TimeCount1
  3104                           
  3105                           ;MainCode.c: 229: 
  3106  061C  3003               	movlw	3
  3107  061D  00F0               	movwf	??_SetTimePhase2Yellow
  3108  061E  0870               	movf	??_SetTimePhase2Yellow,w
  3109  061F  00CF               	movwf	_TimeCount2
  3110  0620                     i1l134:
  3111  0620  0008               	return
  3112  0621                     __end_of_SetTimePhase2Yellow:
  3113                           
  3114                           	psect	text16
  3115  05F4                     __ptext16:	
  3116 ;; *************** function _SetTimePhase2Green *****************
  3117 ;; Defined at:
  3118 ;;		line 219 in file "MainCode.c"
  3119 ;; Parameters:    Size  Location     Type
  3120 ;;		None
  3121 ;; Auto vars:     Size  Location     Type
  3122 ;;		None
  3123 ;; Return value:  Size  Location     Type
  3124 ;;                  1    wreg      void 
  3125 ;; Registers used:
  3126 ;;		wreg, status,2, status,0
  3127 ;; Tracked objects:
  3128 ;;		On entry : 0/0
  3129 ;;		On exit  : 0/0
  3130 ;;		Unchanged: 0/0
  3131 ;; Data sizes:     COMMON   BANK0   BANK1   BANK3   BANK2
  3132 ;;      Params:         0       0       0       0       0
  3133 ;;      Locals:         0       0       0       0       0
  3134 ;;      Temps:          1       0       0       0       0
  3135 ;;      Totals:         1       0       0       0       0
  3136 ;;Total ram usage:        1 bytes
  3137 ;; Hardware stack levels used: 1
  3138 ;; This function calls:
  3139 ;;		Nothing
  3140 ;; This function is called by:
  3141 ;;		_ISR
  3142 ;; This function uses a non-reentrant model
  3143 ;;
  3144                           
  3145                           
  3146                           ;psect for function _SetTimePhase2Green
  3147  05F4                     _SetTimePhase2Green:
  3148  05F4                     i1l1590:	
  3149                           ;incstack = 0
  3150                           ; Regs used in _SetTimePhase2Green: [wreg+status,2+status,0]
  3151                           
  3152                           
  3153                           ;MainCode.c: 221: void __attribute__((picinterrupt(("")))) ISR()
  3154  05F4  1283               	bcf	3,5	;RP0=0, select bank0
  3155  05F5  1303               	bcf	3,6	;RP1=0, select bank0
  3156  05F6  0841               	movf	_Phase2GreenTime,w
  3157  05F7  3E03               	addlw	3
  3158  05F8  00F0               	movwf	??_SetTimePhase2Green
  3159  05F9  0870               	movf	??_SetTimePhase2Green,w
  3160  05FA  00D0               	movwf	_TimeCount1
  3161  05FB                     i1l1592:
  3162                           
  3163                           ;MainCode.c: 222: {
  3164  05FB  0841               	movf	_Phase2GreenTime,w
  3165  05FC  00F0               	movwf	??_SetTimePhase2Green
  3166  05FD  0870               	movf	??_SetTimePhase2Green,w
  3167  05FE  00CF               	movwf	_TimeCount2
  3168  05FF                     i1l131:
  3169  05FF  0008               	return
  3170  0600                     __end_of_SetTimePhase2Green:
  3171                           
  3172                           	psect	text17
  3173  0621                     __ptext17:	
  3174 ;; *************** function _SetTimePhase1Yellow *****************
  3175 ;; Defined at:
  3176 ;;		line 212 in file "MainCode.c"
  3177 ;; Parameters:    Size  Location     Type
  3178 ;;		None
  3179 ;; Auto vars:     Size  Location     Type
  3180 ;;		None
  3181 ;; Return value:  Size  Location     Type
  3182 ;;                  1    wreg      void 
  3183 ;; Registers used:
  3184 ;;		wreg
  3185 ;; Tracked objects:
  3186 ;;		On entry : 0/0
  3187 ;;		On exit  : 0/0
  3188 ;;		Unchanged: 0/0
  3189 ;; Data sizes:     COMMON   BANK0   BANK1   BANK3   BANK2
  3190 ;;      Params:         0       0       0       0       0
  3191 ;;      Locals:         0       0       0       0       0
  3192 ;;      Temps:          1       0       0       0       0
  3193 ;;      Totals:         1       0       0       0       0
  3194 ;;Total ram usage:        1 bytes
  3195 ;; Hardware stack levels used: 1
  3196 ;; This function calls:
  3197 ;;		Nothing
  3198 ;; This function is called by:
  3199 ;;		_ISR
  3200 ;; This function uses a non-reentrant model
  3201 ;;
  3202                           
  3203                           
  3204                           ;psect for function _SetTimePhase1Yellow
  3205  0621                     _SetTimePhase1Yellow:
  3206  0621                     i1l1588:	
  3207                           ;incstack = 0
  3208                           ; Regs used in _SetTimePhase1Yellow: [wreg]
  3209                           
  3210                           
  3211                           ;MainCode.c: 214:     INTCONbits.GIE=1;
  3212  0621  3003               	movlw	3
  3213  0622  00F0               	movwf	??_SetTimePhase1Yellow
  3214  0623  0870               	movf	??_SetTimePhase1Yellow,w
  3215  0624  1283               	bcf	3,5	;RP0=0, select bank0
  3216  0625  1303               	bcf	3,6	;RP1=0, select bank0
  3217  0626  00D0               	movwf	_TimeCount1
  3218                           
  3219                           ;MainCode.c: 215:     PIR1bits.TMR1IF=0;
  3220  0627  3003               	movlw	3
  3221  0628  00F0               	movwf	??_SetTimePhase1Yellow
  3222  0629  0870               	movf	??_SetTimePhase1Yellow,w
  3223  062A  00CF               	movwf	_TimeCount2
  3224  062B                     i1l128:
  3225  062B  0008               	return
  3226  062C                     __end_of_SetTimePhase1Yellow:
  3227                           
  3228                           	psect	text18
  3229  062C                     __ptext18:	
  3230 ;; *************** function _SetLightPhase2Yellow *****************
  3231 ;; Defined at:
  3232 ;;		line 127 in file "MainCode.c"
  3233 ;; Parameters:    Size  Location     Type
  3234 ;;		None
  3235 ;; Auto vars:     Size  Location     Type
  3236 ;;		None
  3237 ;; Return value:  Size  Location     Type
  3238 ;;                  1    wreg      void 
  3239 ;; Registers used:
  3240 ;;		wreg
  3241 ;; Tracked objects:
  3242 ;;		On entry : 0/0
  3243 ;;		On exit  : 0/0
  3244 ;;		Unchanged: 0/0
  3245 ;; Data sizes:     COMMON   BANK0   BANK1   BANK3   BANK2
  3246 ;;      Params:         0       0       0       0       0
  3247 ;;      Locals:         0       0       0       0       0
  3248 ;;      Temps:          0       0       0       0       0
  3249 ;;      Totals:         0       0       0       0       0
  3250 ;;Total ram usage:        0 bytes
  3251 ;; Hardware stack levels used: 1
  3252 ;; This function calls:
  3253 ;;		Nothing
  3254 ;; This function is called by:
  3255 ;;		_ISR
  3256 ;; This function uses a non-reentrant model
  3257 ;;
  3258                           
  3259                           
  3260                           ;psect for function _SetLightPhase2Yellow
  3261  062C                     _SetLightPhase2Yellow:
  3262  062C                     i1l1514:	
  3263                           ;incstack = 0
  3264                           ; Regs used in _SetLightPhase2Yellow: [wreg]
  3265                           
  3266                           
  3267                           ;MainCode.c: 131:     LEDData[6]=TimeCount2/10;
  3268  062C  30F6               	movlw	246
  3269  062D  1283               	bcf	3,5	;RP0=0, select bank0
  3270  062E  1303               	bcf	3,6	;RP1=0, select bank0
  3271  062F  0085               	movwf	5	;volatile
  3272                           
  3273                           ;MainCode.c: 132:     LEDData[7]=TimeCount2%10;
  3274  0630  30F3               	movlw	243
  3275  0631  0089               	movwf	9	;volatile
  3276  0632                     i1l1516:
  3277                           
  3278                           ;MainCode.c: 134: 
  3279  0632  1486               	bsf	6,1	;volatile
  3280  0633                     i1l1518:
  3281                           
  3282                           ;MainCode.c: 135: }
  3283  0633  1506               	bsf	6,2	;volatile
  3284  0634                     i1l1520:
  3285                           
  3286                           ;MainCode.c: 136: 
  3287  0634  1286               	bcf	6,5	;volatile
  3288  0635                     i1l1522:
  3289                           
  3290                           ;MainCode.c: 137: void SetTimePhase1Green()
  3291  0635  1606               	bsf	6,4	;volatile
  3292  0636                     i1l94:
  3293  0636  0008               	return
  3294  0637                     __end_of_SetLightPhase2Yellow:
  3295                           
  3296                           	psect	text19
  3297  0637                     __ptext19:	
  3298 ;; *************** function _SetLightPhase2Green *****************
  3299 ;; Defined at:
  3300 ;;		line 114 in file "MainCode.c"
  3301 ;; Parameters:    Size  Location     Type
  3302 ;;		None
  3303 ;; Auto vars:     Size  Location     Type
  3304 ;;		None
  3305 ;; Return value:  Size  Location     Type
  3306 ;;                  1    wreg      void 
  3307 ;; Registers used:
  3308 ;;		wreg
  3309 ;; Tracked objects:
  3310 ;;		On entry : 0/0
  3311 ;;		On exit  : 0/0
  3312 ;;		Unchanged: 0/0
  3313 ;; Data sizes:     COMMON   BANK0   BANK1   BANK3   BANK2
  3314 ;;      Params:         0       0       0       0       0
  3315 ;;      Locals:         0       0       0       0       0
  3316 ;;      Temps:          0       0       0       0       0
  3317 ;;      Totals:         0       0       0       0       0
  3318 ;;Total ram usage:        0 bytes
  3319 ;; Hardware stack levels used: 1
  3320 ;; This function calls:
  3321 ;;		Nothing
  3322 ;; This function is called by:
  3323 ;;		_ISR
  3324 ;; This function uses a non-reentrant model
  3325 ;;
  3326                           
  3327                           
  3328                           ;psect for function _SetLightPhase2Green
  3329  0637                     _SetLightPhase2Green:
  3330  0637                     i1l1504:	
  3331                           ;incstack = 0
  3332                           ; Regs used in _SetLightPhase2Green: [wreg]
  3333                           
  3334                           
  3335                           ;MainCode.c: 117: 
  3336  0637  30F6               	movlw	246
  3337  0638  1283               	bcf	3,5	;RP0=0, select bank0
  3338  0639  1303               	bcf	3,6	;RP1=0, select bank0
  3339  063A  0085               	movwf	5	;volatile
  3340                           
  3341                           ;MainCode.c: 118: }
  3342  063B  30FF               	movlw	255
  3343  063C  0089               	movwf	9	;volatile
  3344  063D                     i1l1506:
  3345                           
  3346                           ;MainCode.c: 120: void DecodeNumber()
  3347  063D  1086               	bcf	6,1	;volatile
  3348  063E                     i1l1508:
  3349                           
  3350                           ;MainCode.c: 121: {
  3351  063E  1506               	bsf	6,2	;volatile
  3352  063F                     i1l1510:
  3353                           
  3354                           ;MainCode.c: 122:     LEDData[0]=TimeCount1/10;
  3355  063F  1686               	bsf	6,5	;volatile
  3356  0640                     i1l1512:
  3357                           
  3358                           ;MainCode.c: 123:     LEDData[1]=TimeCount1%10;
  3359  0640  1206               	bcf	6,4	;volatile
  3360  0641                     i1l91:
  3361  0641  0008               	return
  3362  0642                     __end_of_SetLightPhase2Green:
  3363                           
  3364                           	psect	text20
  3365  0642                     __ptext20:	
  3366 ;; *************** function _SetLightPhase1Yellow *****************
  3367 ;; Defined at:
  3368 ;;		line 103 in file "MainCode.c"
  3369 ;; Parameters:    Size  Location     Type
  3370 ;;		None
  3371 ;; Auto vars:     Size  Location     Type
  3372 ;;		None
  3373 ;; Return value:  Size  Location     Type
  3374 ;;                  1    wreg      void 
  3375 ;; Registers used:
  3376 ;;		wreg
  3377 ;; Tracked objects:
  3378 ;;		On entry : 0/0
  3379 ;;		On exit  : 0/0
  3380 ;;		Unchanged: 0/0
  3381 ;; Data sizes:     COMMON   BANK0   BANK1   BANK3   BANK2
  3382 ;;      Params:         0       0       0       0       0
  3383 ;;      Locals:         0       0       0       0       0
  3384 ;;      Temps:          0       0       0       0       0
  3385 ;;      Totals:         0       0       0       0       0
  3386 ;;Total ram usage:        0 bytes
  3387 ;; Hardware stack levels used: 1
  3388 ;; This function calls:
  3389 ;;		Nothing
  3390 ;; This function is called by:
  3391 ;;		_ISR
  3392 ;; This function uses a non-reentrant model
  3393 ;;
  3394                           
  3395                           
  3396                           ;psect for function _SetLightPhase1Yellow
  3397  0642                     _SetLightPhase1Yellow:
  3398  0642                     i1l1494:	
  3399                           ;incstack = 0
  3400                           ; Regs used in _SetLightPhase1Yellow: [wreg]
  3401                           
  3402                           
  3403                           ;MainCode.c: 105:     CurrentLED++;
  3404  0642  30DD               	movlw	221
  3405  0643  1283               	bcf	3,5	;RP0=0, select bank0
  3406  0644  1303               	bcf	3,6	;RP1=0, select bank0
  3407  0645  0085               	movwf	5	;volatile
  3408                           
  3409                           ;MainCode.c: 106:     if(CurrentLED==8) CurrentLED=0;
  3410  0646  30FD               	movlw	253
  3411  0647  0089               	movwf	9	;volatile
  3412  0648                     i1l1496:
  3413                           
  3414                           ;MainCode.c: 108:     PORTD=LEDCode[LEDData[CurrentLED]];
  3415  0648  1486               	bsf	6,1	;volatile
  3416  0649                     i1l1498:
  3417                           
  3418                           ;MainCode.c: 109:     if(CurrentLED==0) RC0=0;
  3419  0649  1106               	bcf	6,2	;volatile
  3420  064A                     i1l1500:
  3421                           
  3422                           ;MainCode.c: 110:     else if(CurrentLED==1) RC1=0;
  3423  064A  1686               	bsf	6,5	;volatile
  3424  064B                     i1l1502:
  3425                           
  3426                           ;MainCode.c: 111:     else if(CurrentLED==2) RC2=0;
  3427  064B  1606               	bsf	6,4	;volatile
  3428  064C                     i1l88:
  3429  064C  0008               	return
  3430  064D                     __end_of_SetLightPhase1Yellow:
  3431                           
  3432                           	psect	text21
  3433  0529                     __ptext21:	
  3434 ;; *************** function _ScanLED *****************
  3435 ;; Defined at:
  3436 ;;		line 171 in file "MainCode.c"
  3437 ;; Parameters:    Size  Location     Type
  3438 ;;		None
  3439 ;; Auto vars:     Size  Location     Type
  3440 ;;		None
  3441 ;; Return value:  Size  Location     Type
  3442 ;;                  1    wreg      void 
  3443 ;; Registers used:
  3444 ;;		wreg, fsr0l, fsr0h, status,2, status,0
  3445 ;; Tracked objects:
  3446 ;;		On entry : 0/0
  3447 ;;		On exit  : 0/0
  3448 ;;		Unchanged: 0/0
  3449 ;; Data sizes:     COMMON   BANK0   BANK1   BANK3   BANK2
  3450 ;;      Params:         0       0       0       0       0
  3451 ;;      Locals:         0       0       0       0       0
  3452 ;;      Temps:          1       0       0       0       0
  3453 ;;      Totals:         1       0       0       0       0
  3454 ;;Total ram usage:        1 bytes
  3455 ;; Hardware stack levels used: 1
  3456 ;; This function calls:
  3457 ;;		Nothing
  3458 ;; This function is called by:
  3459 ;;		_ISR
  3460 ;; This function uses a non-reentrant model
  3461 ;;
  3462                           
  3463                           
  3464                           ;psect for function _ScanLED
  3465  0529                     _ScanLED:
  3466  0529                     i1l1542:	
  3467                           ;incstack = 0
  3468                           ; Regs used in _ScanLED: [wreg-fsr0h+status,2+status,0]
  3469                           
  3470                           
  3471                           ;MainCode.c: 173:     PORTBbits.RB1=1;
  3472  0529  3001               	movlw	1
  3473  052A  00F0               	movwf	??_ScanLED
  3474  052B  0870               	movf	??_ScanLED,w
  3475  052C  07FD               	addwf	_CurrentLED,f
  3476                           
  3477                           ;MainCode.c: 174:     PORTBbits.RB2=1;
  3478  052D  3008               	movlw	8
  3479  052E  067D               	xorwf	_CurrentLED,w
  3480  052F  1D03               	btfss	3,2
  3481  0530  2D32               	goto	u109_21
  3482  0531  2D33               	goto	u109_20
  3483  0532                     u109_21:
  3484  0532  2D34               	goto	i1l1546
  3485  0533                     u109_20:
  3486  0533                     i1l1544:
  3487  0533  01FD               	clrf	_CurrentLED
  3488  0534                     i1l1546:
  3489                           
  3490                           ;MainCode.c: 175:     PORTBbits.RB5=0;
  3491  0534  30FF               	movlw	255
  3492  0535  1283               	bcf	3,5	;RP0=0, select bank0
  3493  0536  1303               	bcf	3,6	;RP1=0, select bank0
  3494  0537  0087               	movwf	7	;volatile
  3495  0538                     i1l1548:
  3496                           
  3497                           ;MainCode.c: 176:     PORTBbits.RB4=1;
  3498  0538  087D               	movf	_CurrentLED,w
  3499  0539  3E43               	addlw	(low (_LEDData| 0))& (0+255)
  3500  053A  0084               	movwf	4
  3501  053B  1383               	bcf	3,7	;select IRP bank0
  3502  053C  0800               	movf	0,w
  3503  053D  3E33               	addlw	(low (_LEDCode| 0))& (0+255)
  3504  053E  0084               	movwf	4
  3505  053F  0800               	movf	0,w
  3506  0540  0088               	movwf	8	;volatile
  3507  0541                     i1l1550:
  3508                           
  3509                           ;MainCode.c: 177: }
  3510  0541  087D               	movf	_CurrentLED,w
  3511  0542  1D03               	btfss	3,2
  3512  0543  2D45               	goto	u110_21
  3513  0544  2D46               	goto	u110_20
  3514  0545                     u110_21:
  3515  0545  2D48               	goto	i1l1554
  3516  0546                     u110_20:
  3517  0546                     i1l1552:
  3518  0546  1007               	bcf	7,0	;volatile
  3519  0547  2D7F               	goto	i1l119
  3520  0548                     i1l1554:
  3521  0548  037D               	decf	_CurrentLED,w
  3522  0549  1D03               	btfss	3,2
  3523  054A  2D4C               	goto	u111_21
  3524  054B  2D4D               	goto	u111_20
  3525  054C                     u111_21:
  3526  054C  2D4F               	goto	i1l1558
  3527  054D                     u111_20:
  3528  054D                     i1l1556:
  3529  054D  1087               	bcf	7,1	;volatile
  3530  054E  2D7F               	goto	i1l119
  3531  054F                     i1l1558:
  3532  054F  3002               	movlw	2
  3533  0550  067D               	xorwf	_CurrentLED,w
  3534  0551  1D03               	btfss	3,2
  3535  0552  2D54               	goto	u112_21
  3536  0553  2D55               	goto	u112_20
  3537  0554                     u112_21:
  3538  0554  2D57               	goto	i1l1562
  3539  0555                     u112_20:
  3540  0555                     i1l1560:
  3541  0555  1107               	bcf	7,2	;volatile
  3542  0556  2D7F               	goto	i1l119
  3543  0557                     i1l1562:
  3544  0557  3003               	movlw	3
  3545  0558  067D               	xorwf	_CurrentLED,w
  3546  0559  1D03               	btfss	3,2
  3547  055A  2D5C               	goto	u113_21
  3548  055B  2D5D               	goto	u113_20
  3549  055C                     u113_21:
  3550  055C  2D5F               	goto	i1l1566
  3551  055D                     u113_20:
  3552  055D                     i1l1564:
  3553  055D  1187               	bcf	7,3	;volatile
  3554  055E  2D7F               	goto	i1l119
  3555  055F                     i1l1566:
  3556  055F  3004               	movlw	4
  3557  0560  067D               	xorwf	_CurrentLED,w
  3558  0561  1D03               	btfss	3,2
  3559  0562  2D64               	goto	u114_21
  3560  0563  2D65               	goto	u114_20
  3561  0564                     u114_21:
  3562  0564  2D67               	goto	i1l1570
  3563  0565                     u114_20:
  3564  0565                     i1l1568:
  3565  0565  1207               	bcf	7,4	;volatile
  3566  0566  2D7F               	goto	i1l119
  3567  0567                     i1l1570:
  3568  0567  3005               	movlw	5
  3569  0568  067D               	xorwf	_CurrentLED,w
  3570  0569  1D03               	btfss	3,2
  3571  056A  2D6C               	goto	u115_21
  3572  056B  2D6D               	goto	u115_20
  3573  056C                     u115_21:
  3574  056C  2D6F               	goto	i1l1574
  3575  056D                     u115_20:
  3576  056D                     i1l1572:
  3577  056D  1287               	bcf	7,5	;volatile
  3578  056E  2D7F               	goto	i1l119
  3579  056F                     i1l1574:
  3580  056F  3006               	movlw	6
  3581  0570  067D               	xorwf	_CurrentLED,w
  3582  0571  1D03               	btfss	3,2
  3583  0572  2D74               	goto	u116_21
  3584  0573  2D75               	goto	u116_20
  3585  0574                     u116_21:
  3586  0574  2D77               	goto	i1l1578
  3587  0575                     u116_20:
  3588  0575                     i1l1576:
  3589  0575  1307               	bcf	7,6	;volatile
  3590  0576  2D7F               	goto	i1l119
  3591  0577                     i1l1578:
  3592  0577  3007               	movlw	7
  3593  0578  067D               	xorwf	_CurrentLED,w
  3594  0579  1D03               	btfss	3,2
  3595  057A  2D7C               	goto	u117_21
  3596  057B  2D7D               	goto	u117_20
  3597  057C                     u117_21:
  3598  057C  2D7F               	goto	i1l113
  3599  057D                     u117_20:
  3600  057D                     i1l1580:
  3601  057D  1387               	bcf	7,7	;volatile
  3602  057E  2D7F               	goto	i1l119
  3603  057F                     i1l113:
  3604  057F                     i1l119:
  3605  057F  0008               	return
  3606  0580                     __end_of_ScanLED:
  3607                           
  3608                           	psect	text22
  3609  064D                     __ptext22:	
  3610 ;; *************** function _OnYellow *****************
  3611 ;; Defined at:
  3612 ;;		line 235 in file "MainCode.c"
  3613 ;; Parameters:    Size  Location     Type
  3614 ;;		None
  3615 ;; Auto vars:     Size  Location     Type
  3616 ;;		None
  3617 ;; Return value:  Size  Location     Type
  3618 ;;                  1    wreg      void 
  3619 ;; Registers used:
  3620 ;;		wreg
  3621 ;; Tracked objects:
  3622 ;;		On entry : 0/0
  3623 ;;		On exit  : 0/0
  3624 ;;		Unchanged: 0/0
  3625 ;; Data sizes:     COMMON   BANK0   BANK1   BANK3   BANK2
  3626 ;;      Params:         0       0       0       0       0
  3627 ;;      Locals:         0       0       0       0       0
  3628 ;;      Temps:          0       0       0       0       0
  3629 ;;      Totals:         0       0       0       0       0
  3630 ;;Total ram usage:        0 bytes
  3631 ;; Hardware stack levels used: 1
  3632 ;; This function calls:
  3633 ;;		Nothing
  3634 ;; This function is called by:
  3635 ;;		_ISR
  3636 ;; This function uses a non-reentrant model
  3637 ;;
  3638                           
  3639                           
  3640                           ;psect for function _OnYellow
  3641  064D                     _OnYellow:
  3642  064D                     i1l1596:	
  3643                           ;incstack = 0
  3644                           ; Regs used in _OnYellow: [wreg]
  3645                           
  3646                           
  3647                           ;MainCode.c: 238:                         TimeCount2--;
  3648  064D  30DD               	movlw	221
  3649  064E  1283               	bcf	3,5	;RP0=0, select bank0
  3650  064F  1303               	bcf	3,6	;RP1=0, select bank0
  3651  0650  0085               	movwf	5	;volatile
  3652                           
  3653                           ;MainCode.c: 239: 
  3654  0651  30FB               	movlw	251
  3655  0652  0089               	movwf	9	;volatile
  3656  0653                     i1l1598:
  3657                           
  3658                           ;MainCode.c: 241:                         {
  3659  0653  1486               	bsf	6,1	;volatile
  3660  0654                     i1l1600:
  3661                           
  3662                           ;MainCode.c: 242:                             SetTimePhase1Yellow();
  3663  0654  1506               	bsf	6,2	;volatile
  3664  0655                     i1l1602:
  3665                           
  3666                           ;MainCode.c: 243:                             CurrentState=1;
  3667  0655  1286               	bcf	6,5	;volatile
  3668  0656                     i1l1604:
  3669                           
  3670                           ;MainCode.c: 244:                             SetLightPhase1Yellow();
  3671  0656  1606               	bsf	6,4	;volatile
  3672  0657                     i1l137:
  3673  0657  0008               	return
  3674  0658                     __end_of_OnYellow:
  3675                           
  3676                           	psect	text23
  3677  0658                     __ptext23:	
  3678 ;; *************** function _OffYellow *****************
  3679 ;; Defined at:
  3680 ;;		line 247 in file "MainCode.c"
  3681 ;; Parameters:    Size  Location     Type
  3682 ;;		None
  3683 ;; Auto vars:     Size  Location     Type
  3684 ;;		None
  3685 ;; Return value:  Size  Location     Type
  3686 ;;                  1    wreg      void 
  3687 ;; Registers used:
  3688 ;;		wreg
  3689 ;; Tracked objects:
  3690 ;;		On entry : 0/0
  3691 ;;		On exit  : 0/0
  3692 ;;		Unchanged: 0/0
  3693 ;; Data sizes:     COMMON   BANK0   BANK1   BANK3   BANK2
  3694 ;;      Params:         0       0       0       0       0
  3695 ;;      Locals:         0       0       0       0       0
  3696 ;;      Temps:          0       0       0       0       0
  3697 ;;      Totals:         0       0       0       0       0
  3698 ;;Total ram usage:        0 bytes
  3699 ;; Hardware stack levels used: 1
  3700 ;; This function calls:
  3701 ;;		Nothing
  3702 ;; This function is called by:
  3703 ;;		_ISR
  3704 ;; This function uses a non-reentrant model
  3705 ;;
  3706                           
  3707                           
  3708                           ;psect for function _OffYellow
  3709  0658                     _OffYellow:
  3710  0658                     i1l1606:	
  3711                           ;incstack = 0
  3712                           ; Regs used in _OffYellow: [wreg]
  3713                           
  3714                           
  3715                           ;MainCode.c: 250:                             SetLightPhase2Green();
  3716  0658  30FF               	movlw	255
  3717  0659  1283               	bcf	3,5	;RP0=0, select bank0
  3718  065A  1303               	bcf	3,6	;RP1=0, select bank0
  3719  065B  0085               	movwf	5	;volatile
  3720                           
  3721                           ;MainCode.c: 251:                         }
  3722  065C  30FF               	movlw	255
  3723  065D  0089               	movwf	9	;volatile
  3724  065E                     i1l1608:
  3725                           
  3726                           ;MainCode.c: 253:                         {
  3727  065E  1486               	bsf	6,1	;volatile
  3728  065F                     i1l1610:
  3729                           
  3730                           ;MainCode.c: 254:                             SetTimePhase2Yellow();
  3731  065F  1506               	bsf	6,2	;volatile
  3732  0660                     i1l1612:
  3733                           
  3734                           ;MainCode.c: 255:                             CurrentState=3;
  3735  0660  1686               	bsf	6,5	;volatile
  3736  0661                     i1l1614:
  3737                           
  3738                           ;MainCode.c: 256:                             SetLightPhase2Yellow();
  3739  0661  1606               	bsf	6,4	;volatile
  3740  0662                     i1l140:
  3741  0662  0008               	return
  3742  0663                     __end_of_OffYellow:
  3743  007E                     btemp	set	126	;btemp
  3744  007E                     wtemp0	set	126
  3745                           
  3746                           	psect	config
  3747                           
  3748                           ;Config register CONFIG @ 0x2007
  3749                           ;	Oscillator Selection bits
  3750                           ;	FOSC = HS, HS oscillator
  3751                           ;	Watchdog Timer Enable bit
  3752                           ;	WDTE = OFF, WDT disabled
  3753                           ;	Power-up Timer Enable bit
  3754                           ;	PWRTE = OFF, PWRT disabled
  3755                           ;	Brown-out Reset Enable bit
  3756                           ;	BOREN = OFF, BOR disabled
  3757                           ;	Low-Voltage (Single-Supply) In-Circuit Serial Programming Enable bit
  3758                           ;	LVP = OFF, RB3 is digital I/O, HV on MCLR must be used for programming
  3759                           ;	Data EEPROM Memory Code Protection bit
  3760                           ;	CPD = OFF, Data EEPROM code protection off
  3761                           ;	Flash Program Memory Write Enable bits
  3762                           ;	WRT = OFF, Write protection off; all program memory may be written to by EECON control
  3763                           ;	In-Circuit Debugger Mode bit
  3764                           ;	DEBUG = 0x1, unprogrammed default
  3765                           ;	Flash Program Memory Code Protection bit
  3766                           ;	CP = OFF, Code protection off
  3767  2007                     	org	8199
  3768  2007  3F3A               	dw	16186

Data Sizes:
    Strings     0
    Constant    0
    Data        16
    BSS         14
    Persistent  2
    Stack       0

Auto Spaces:
    Space          Size  Autos    Used
    COMMON           14     12      14
    BANK0            80     19      49
    BANK1            80      0       0
    BANK3            96      0       0
    BANK2            96      0       0

Pointer List with Targets:

    None.

Critical Paths under _main in COMMON

    None.

Critical Paths under _ISR in COMMON

    _ISR->i1_DecodeNumber
    i1_DecodeNumber->i1___awdiv

Critical Paths under _main in BANK0

    _main->_DecodeNumber
    _DecodeNumber->___awdiv

Critical Paths under _ISR in BANK0

    None.

Critical Paths under _main in BANK1

    None.

Critical Paths under _ISR in BANK1

    None.

Critical Paths under _main in BANK3

    None.

Critical Paths under _ISR in BANK3

    None.

Critical Paths under _main in BANK2

    None.

Critical Paths under _ISR in BANK2

    None.

Call Graph Tables:

 ---------------------------------------------------------------------------------
 (Depth) Function   	        Calls       Base Space   Used Autos Params    Refs
 ---------------------------------------------------------------------------------
 (0) _main                                                 2     2      0    1880
                                             17 BANK0      2     2      0
                        _CheckButton
                       _DecodeNumber
                         _InitTimer0
                         _InitTimer1
                _SetLightPhase1Green
                 _SetTimePhase1Green
 ---------------------------------------------------------------------------------
 (1) _SetTimePhase1Green                                   1     1      0       0
                                              5 BANK0      1     1      0
 ---------------------------------------------------------------------------------
 (1) _SetLightPhase1Green                                  0     0      0       0
 ---------------------------------------------------------------------------------
 (1) _InitTimer1                                           0     0      0       0
 ---------------------------------------------------------------------------------
 (1) _InitTimer0                                           0     0      0       0
 ---------------------------------------------------------------------------------
 (1) _DecodeNumber                                         3     3      0    1812
                                             14 BANK0      3     3      0
                            ___awdiv
                            ___awmod
 ---------------------------------------------------------------------------------
 (2) ___awmod                                              7     3      4     904
                                              5 BANK0      7     3      4
 ---------------------------------------------------------------------------------
 (2) ___awdiv                                              9     5      4     908
                                              5 BANK0      9     5      4
 ---------------------------------------------------------------------------------
 (1) _CheckButton                                          0     0      0       0
 ---------------------------------------------------------------------------------
 Estimated maximum stack depth 2
 ---------------------------------------------------------------------------------
 (Depth) Function   	        Calls       Base Space   Used Autos Params    Refs
 ---------------------------------------------------------------------------------
 (3) _ISR                                                  5     5      0    1012
                                              0 BANK0      5     5      0
                          _OffYellow
                           _OnYellow
                            _ScanLED
               _SetLightPhase1Yellow
                _SetLightPhase2Green
               _SetLightPhase2Yellow
                _SetTimePhase1Yellow
                 _SetTimePhase2Green
                _SetTimePhase2Yellow
                     i1_DecodeNumber
              i1_SetLightPhase1Green
               i1_SetTimePhase1Green
 ---------------------------------------------------------------------------------
 (4) i1_SetTimePhase1Green                                 1     1      0       0
                                              0 COMMON     1     1      0
 ---------------------------------------------------------------------------------
 (4) i1_SetLightPhase1Green                                0     0      0       0
 ---------------------------------------------------------------------------------
 (4) i1_DecodeNumber                                       3     3      0    1012
                                              9 COMMON     3     3      0
                          i1___awdiv
                          i1___awmod
 ---------------------------------------------------------------------------------
 (5) i1___awmod                                            7     3      4     504
                                              0 COMMON     7     3      4
 ---------------------------------------------------------------------------------
 (5) i1___awdiv                                            9     5      4     508
                                              0 COMMON     9     5      4
 ---------------------------------------------------------------------------------
 (4) _SetTimePhase2Yellow                                  1     1      0       0
                                              0 COMMON     1     1      0
 ---------------------------------------------------------------------------------
 (4) _SetTimePhase2Green                                   1     1      0       0
                                              0 COMMON     1     1      0
 ---------------------------------------------------------------------------------
 (4) _SetTimePhase1Yellow                                  1     1      0       0
                                              0 COMMON     1     1      0
 ---------------------------------------------------------------------------------
 (4) _SetLightPhase2Yellow                                 0     0      0       0
 ---------------------------------------------------------------------------------
 (4) _SetLightPhase2Green                                  0     0      0       0
 ---------------------------------------------------------------------------------
 (4) _SetLightPhase1Yellow                                 0     0      0       0
 ---------------------------------------------------------------------------------
 (4) _ScanLED                                              1     1      0       0
                                              0 COMMON     1     1      0
 ---------------------------------------------------------------------------------
 (4) _OnYellow                                             0     0      0       0
 ---------------------------------------------------------------------------------
 (4) _OffYellow                                            0     0      0       0
 ---------------------------------------------------------------------------------
 Estimated maximum stack depth 5
 ---------------------------------------------------------------------------------

 Call Graph Graphs:

 _main (ROOT)
   _CheckButton
   _DecodeNumber
     ___awdiv
     ___awmod
   _InitTimer0
   _InitTimer1
   _SetLightPhase1Green
   _SetTimePhase1Green

 _ISR (ROOT)
   _OffYellow
   _OnYellow
   _ScanLED
   _SetLightPhase1Yellow
   _SetLightPhase2Green
   _SetLightPhase2Yellow
   _SetTimePhase1Yellow
   _SetTimePhase2Green
   _SetTimePhase2Yellow
   i1_DecodeNumber
     i1___awdiv
     i1___awmod
   i1_SetLightPhase1Green
   i1_SetTimePhase1Green

 Address spaces:
Name               Size   Autos  Total    Cost      Usage
BANK3               60      0       0       9        0.0%
BITBANK3            60      0       0       8        0.0%
SFR3                 0      0       0       4        0.0%
BITSFR3              0      0       0       4        0.0%
BANK2               60      0       0      11        0.0%
BITBANK2            60      0       0      10        0.0%
SFR2                 0      0       0       5        0.0%
BITSFR2              0      0       0       5        0.0%
BANK1               50      0       0       7        0.0%
BITBANK1            50      0       0       6        0.0%
SFR1                 0      0       0       2        0.0%
BITSFR1              0      0       0       2        0.0%
BANK0               50     13      31       5       61.3%
BITBANK0            50      0       0       4        0.0%
SFR0                 0      0       0       1        0.0%
BITSFR0              0      0       0       1        0.0%
COMMON               E      C       E       1      100.0%
BITCOMMON            E      0       0       0        0.0%
CODE                 0      0       0       0        0.0%
DATA                 0      0      3F      12        0.0%
ABS                  0      0      3F       3        0.0%
NULL                 0      0       0       0        0.0%
STACK                0      0       0       2        0.0%
EEDATA             100      0       0       0        0.0%


Microchip Technology PIC Macro Assembler V2.32 build 20210201212658 
Symbol Table                                                                                   Mon Jun 21 15:24:45 2021

                             pc 0002                              l85 060A                              l97 0588  
                            l98 0595                              l99 058E                    ___awdiv@sign 002B  
                            fsr 0004                             l122 02F1                             l125 05E7  
                           l143 05DB                             l146 05BB                             l170 023B  
                           l415 040D                             l428 04CF                             _RC0 0038  
                           _RC1 0039                             _RC2 003A                             _RC3 003B  
                           _RC4 003C                             _RC5 003D                             _RC6 003E  
                           _RC7 003F                             u700 03C8                             _ISR 0035  
                           u701 03C7                             u720 03DA                             u800 0492  
                           u721 03D9                             u801 0491                             u715 03CC  
                           u740 03EB                             u820 04A4                             u741 03EA  
                           u821 04A3                             u830 04AE                             u735 03DB  
                           u831 04AD                             u815 0496                             u760 03FF  
                           u680 03AC                             u761 03FE                             u745 03E7  
                           u681 03AB                             u770 0404                             u690 03B7  
                           u850 04C1                             u771 0403                             u755 03F3  
                           u691 03B6                             u851 04C0                             u835 04AA  
                           u860 04C6                             u780 047C                             u861 04C5  
                           u845 04B5                             u781 047B                             u790 0487  
                           u791 0486                             fsr0 0004                             indf 0000  
                  ___awmod@sign 002B                            ?_ISR 0070                            l1320 03A5  
                          l1330 03B7                            l1322 03A8                            l1340 03CB  
                          l1332 03BC                            l1324 03AC                            l1350 03F1  
                          l1342 03D2                            l1334 03C0                            l1326 03B1  
                          l1360 0409                            l1352 03F2                            l1344 03D6  
                          l1336 03C2                            l1328 03B3                            l1530 058C  
                          l1354 03F9                            l1346 03DA                            l1338 03C8  
                          l1370 0481                            l1524 0580                            l1348 03EB  
                          l1356 03FF                            l1380 0495                            l1372 0483  
                          l1364 0475                            l1620 05D7                            l1534 0592  
                          l1526 0586                            l1358 0404                            l1390 04B4  
                          l1382 049C                            l1374 0487                            l1366 0478  
                          l1622 05D8                            l1630 05B6                            l1392 04BB  
                          l1384 04A0                            l1376 048C                            l1368 047C  
                          l1624 05D9                            l1616 05CC                            l1632 05BA  
                          l1800 019B                            l1538 0594                            l1386 04A4  
                          l1378 0492                            l1394 04C1                            l1626 05DA  
                          l1618 05D3                            l1490 0608                            l1810 01BA  
                          l1802 01A0                            l1396 04C6                            l1388 04AE  
                          l1628 05A9                            l1492 0609                            l1484 0600  
                          l1820 01D0                            l1812 01BF                            l1804 01AA  
                          l1398 04CB                            l1582 023F                            l1486 0606  
                          l1830 01E4                            l1822 01D4                            l1814 01C4  
                          l1806 01AF                            l1488 0607                            l1584 05DC  
                          l1840 01F7                            l1832 01E8                            l1824 01D8  
                          l1816 01C9                            l1808 01B2                            l1760 0159  
                          l1586 05E2                            l1850 020F                            l1842 01FF  
                          l1834 01EC                            l1826 01DC                            l1818 01CA  
                          l1770 0166                            l1762 015D                            l1754 0154  
                          l1860 0225                            l1852 0215                            l1844 0204  
                          l1828 01E0                            l1836 01EE                            l1780 017C  
                          l1772 016C                            l1764 015F                            l1756 0154  
                          l1870 0239                            l1862 0229                            l1854 0219  
                          l1846 0209                            l1838 01F4                            l1790 018A  
                          l1782 0180                            l1774 0170                            l1766 0160  
                          l1758 0157                            l1864 022D                            l1856 021D  
                          l1848 020E                            l1792 018B                            l1784 0184  
                          l1776 0174                            l1768 0161                            l1866 0231  
                          l1858 0221                            l1794 0190                            l1786 0188  
                          l1778 0178                            l1868 0233                            l1796 0195  
                          l1788 0189                            l1798 019A                            u1060 0586  
                          u1061 0585                            u1070 058C                            u1071 058B  
                          u1080 0592                            u1320 01AF                            u1081 0591  
                          u1321 01AE                            u1330 01F4                            u1331 01F3  
                          u1340 0239                            u1341 0238                            i1l91 0641  
                          i1l85 0615                            i1l94 0636                            i1l88 064C  
                          _TMR0 0001         __size_ofi1_DecodeNumber 00B3                            _main 0154  
                          btemp 007E                            start 0012                 __end_of_ScanLED 0580  
                         ??_ISR 0020                     _CheckButton 0580                           ?_main 0070  
                i1___awdiv@sign 0076                 __end_of___awdiv 040E                 __end_of___awmod 04D0  
                         _CMCON 009C                 ___awdiv@divisor 0025                           i1l113 057F  
                         i1l122 03A4                           i1l131 05FF                           i1l140 0662  
                         i1l125 05F3                           i1l134 0620                           i1l119 057F  
                         i1l128 062B                           i1l137 0657                           i1l163 0147  
                         i1l415 0474                           i1l159 00F7                           i1l428 0528  
               ___awdiv@counter 002A                           _TMR1H 000F                           _TMR1L 000E  
                         _PORTA 0005                           _PORTB 0006                           _PORTC 0007  
                         _PORTD 0008                           _PORTE 0009                           _TRISA 0085  
                         _TRISB 0086                           _TRISC 0087                           _TRISD 0088  
                         _TRISE 0089                           u90_25 0433                           u91_20 0441  
                         u91_21 0440                           u92_25 0442                           u93_20 0452  
                         u93_21 0451                           u93_25 044E                           u94_25 045A  
                         u95_20 0466                           u87_20 0413                           u95_21 0465  
                         u87_21 0412                           u96_20 046B                           u88_20 041E  
                         u96_21 046A                           u88_21 041D                           u89_20 042F  
                         u97_20 04D5                           u89_21 042E                           u97_21 04D4  
                         u98_20 04E0                           u98_21 04DF                           u99_20 04EB  
                         u99_21 04EA                  i1___awmod@sign 0076    __end_of_SetLightPhase1Yellow 064D  
  __end_of_SetLightPhase2Yellow 0637                           pclath 000A                           status 0003  
                         wtemp0 007E           __size_of_DecodeNumber 00B3              __size_ofi1___awdiv 0067  
            __size_ofi1___awmod 0059                 __initialization 0015                      _InitTimer0 05CC  
                    _InitTimer1 05A9             _SetLightPhase1Green 0600             _SetLightPhase2Green 0637  
                  __end_of_main 023F                      _CurrentLED 007D                __end_of_OnYellow 0658  
                    _NightLight 003F                          ??_main 0031            ?_SetLightPhase1Green 0070  
          ?_SetLightPhase2Green 0070                    _DecodeNumber 023F    __end_ofi1_SetTimePhase1Green 05F4  
                        _ADCON1 009F                ___awdiv@dividend 0027                          u100_25 04EF  
                        u101_20 04FD                          u101_21 04FC                          u110_20 0546  
                        u102_20 0507                          u110_21 0545                          u102_21 0506  
                        u102_25 0503                          u111_20 054D                          u111_21 054C  
                        i1l1410 041A                          i1l1402 040E                          i1l1500 064A  
                        i1l1420 042F                          i1l1412 041E                          i1l1404 040F  
                        u103_25 050E                          i1l1502 064B                          i1l1510 063F  
                        i1l1430 0452                          i1l1422 0432                          i1l1414 0423  
                        i1l1406 0413                          i1l1600 0654                          u112_20 0555  
                        i1l1512 0640                          i1l1504 0637                          i1l1520 0634  
                        i1l1440 046B                          i1l1432 0458                          i1l1424 0439  
                        i1l1416 0427                          i1l1408 0418                          u104_20 051A  
                        u120_20 0058                          u112_21 0554                          u104_21 0519  
                        u120_21 0057                          i1l1610 065F                          i1l1602 0655  
                        i1l1506 063D                          i1l1522 0635                          i1l1514 062C  
                        i1l1442 0470                          i1l1434 0459                          i1l1426 043D  
                        i1l1418 0429                          i1l1450 04D5                          i1l1612 0660  
                        i1l1604 0656                          i1l1508 063E                          i1l1516 0632  
                        i1l1436 0460                          i1l1428 0441                          i1l1460 04EB  
                        i1l1452 04DA                          i1l1700 00C3                          i1l1614 0661  
                        i1l1606 0658                          i1l1550 0541                          i1l1542 0529  
                        i1l1518 0633                          i1l1438 0466                          i1l1470 0507  
                        i1l1462 04EE                          i1l1454 04DC                          i1l1446 04D0  
                        i1l1710 00DA                          i1l1702 00C9                          i1l1608 065E  
                        u113_20 055D                          i1l1560 0555                          i1l1552 0546  
                        i1l1544 0533                          i1l1480 0524                          u105_20 051F  
                        i1l1472 050D                          i1l1464 04F5                          i1l1456 04E0  
                        i1l1448 04D1                          i1l1640 0613                          i1l1720 00EE  
                        i1l1712 00DE                          i1l1704 00CE                          u121_20 0061  
                        u113_21 055C                          u105_21 051E                          u121_21 0060  
                        i1l1570 0567                          i1l1562 0557                          i1l1554 0548  
                        i1l1546 0534                          i1l1474 0514                          i1l1466 04F9  
                        i1l1458 04E5                          i1l1642 0614                          i1l1634 060B  
                        i1l1730 0108                          i1l1722 00F2                          i1l1714 00E2  
                        i1l1706 00CF                          i1l1650 0035                          i1l1580 057D  
                        i1l1572 056D                          i1l1564 055D                          i1l1556 054D  
                        i1l1548 0538                          i1l1468 04FD                          i1l1476 051A  
                        i1l1644 02F2                          i1l1636 0611                          i1l1740 011C  
                        i1l1732 010C                          i1l1724 00F9                          i1l1716 00E6  
                        i1l1708 00D4                          i1l1660 0053                          i1l1652 0039  
                        i1l1574 056F                          i1l1566 055F                          i1l1558 054F  
                        i1l1494 0642                          i1l1590 05F4                          i1l1478 051F  
                        i1l1638 0612                          i1l1646 05E8                          i1l1750 013E  
                        i1l1734 0110                          i1l1726 00FE                          i1l1718 00EA  
                        i1l1670 0072                          i1l1662 0058                          i1l1654 003A  
                        i1l1742 0120                          i1l1576 0575                          i1l1568 0565  
                        u114_20 0565                          i1l1496 0648                          i1l1592 05FB  
                        i1l1648 05EE                          i1l1752 0142                          i1l1744 0126  
                        u130_20 0126                          i1l1736 0114                          i1l1728 0104  
                        i1l1672 0077                          i1l1680 008E                          u122_20 0066  
                        i1l1664 0061                          i1l1656 0042                          u114_21 0564  
                        u130_21 0125                          u122_21 0065                          i1l1578 0577  
                        i1l1498 0649                          i1l1594 0616                          i1l1746 0127  
                        i1l1738 0118                          i1l1682 0094                          i1l1690 00AB  
                        i1l1674 007E                          i1l1666 0066                          i1l1658 004F  
                        i1l1596 064D                          i1l1588 0621                          i1l1748 0131  
                        i1l1692 00B1                          i1l1684 009B                          i1l1676 0083  
                        i1l1668 006B                          i1l1598 0653                          i1l1694 00B8  
                        i1l1686 00A0                          i1l1678 0089                          u115_20 056D  
                        u131_20 013E                          i1l1696 00BD                          i1l1688 00A6  
                        u123_20 0077                          u115_21 056C                          u131_21 013D  
                        u123_21 0076                          i1l1698 00BE                          u131_25 013A  
                        u116_20 0575                          u124_20 007E                          u116_21 0574  
                        u124_21 007D                          u117_20 057D                          u109_20 0533  
                        u125_20 0094                          u117_21 057C                          u109_21 0532  
                        u125_21 0093                          u126_20 009B                          u118_20 0039  
                        u126_21 009A                          u118_21 0038                          u127_20 00B1  
                        u119_20 004F                          u127_21 00B0                          u119_21 004E  
                        u119_25 004B                          u128_20 00B8                          u128_21 00B7  
                        u129_20 00CE                          u129_21 00CD              __size_of_OffYellow 000B  
                     ??_ScanLED 0070                      _TimeCount1 0050                      _TimeCount2 004F  
                     ??___awdiv 0029                       ??___awmod 0029                ___awdiv@quotient 002C  
               ___awmod@divisor 0025                 ___awmod@counter 002A               __end_ofi1___awdiv 0475  
             __end_ofi1___awmod 0529             _SetTimePhase1Yellow 0621             _SetTimePhase2Yellow 0616  
                        saved_w 007E           ??_SetLightPhase1Green 0025           ??_SetLightPhase2Green 0070  
                i1_DecodeNumber 02F2         __end_of__initialization 0031  __size_ofi1_SetLightPhase1Green 000B  
 __end_ofi1_SetLightPhase1Green 0616            ?_SetTimePhase1Yellow 0070            ?_SetTimePhase2Yellow 0070  
                   ?_InitTimer0 0070                     ?_InitTimer1 0070                  __pcstackCOMMON 0070  
                  __pidataBANK0 05BC            _SetLightPhase1Yellow 0642            _SetLightPhase2Yellow 062C  
             __end_of_OffYellow 0663                  _OPTION_REGbits 0081          __end_ofi1_DecodeNumber 03A5  
                    __pbssBANK0 0043      __end_of_SetTimePhase1Green 05E8      __end_of_SetTimePhase2Green 0600  
                     ?_OnYellow 0070           ??_SetTimePhase1Yellow 0070           ??_SetTimePhase2Yellow 0070  
                    __pmaintext 0154                      __pintentry 0004                    ?_CheckButton 0070  
          i1_SetTimePhase1Green 05E8           ?_SetLightPhase1Yellow 0070           ?_SetLightPhase2Yellow 0070  
            i1___awdiv@dividend 0072                         _LEDData 0043                         _LEDCode 0033  
               ?i1_DecodeNumber 0070             __size_of_InitTimer0 0010             __size_of_InitTimer1 0013  
                    ??_OnYellow 0070                         _ScanLED 0529                     _Timer0Count 004D  
                   _Timer1Count 004B              i1___awdiv@quotient 0077           ?i1_SetTimePhase1Green 0070  
                       ___awdiv 03A5                         ___awmod 0475                         __ptext1 05DC  
                       __ptext2 0600                         __ptext3 05A9                         __ptext4 05CC  
                       __ptext5 023F                         __ptext6 0475                         __ptext7 03A5  
                       __ptext8 0580                         __ptext9 0035                    __size_of_ISR 011F  
                     _T1CONbits 0010                ___awmod@dividend 0027            end_of_initialization 0031  
        ??_SetLightPhase1Yellow 0070          ??_SetLightPhase2Yellow 0070                       _PORTBbits 0006  
                     i1___awdiv 040E                       i1___awmod 04D0                      main@Button 0032  
        ??i1_SetTimePhase1Green 0070                    ??_InitTimer0 0025                    ??_InitTimer1 0025  
   __end_of_SetLightPhase1Green 060B     __end_of_SetLightPhase2Green 0642            __size_of_CheckButton 0016  
               _Phase1GreenTime 0042                 _Phase2GreenTime 0041             start_initialization 0015  
                     _OffYellow 0658                     __end_of_ISR 0154                      ?i1___awdiv 0070  
                    ?i1___awmod 0070                    _CurrentState 007C                       _NightMode 0040  
            __end_of_InitTimer0 05DC              __end_of_InitTimer1 05BC               __size_of_OnYellow 000B  
         i1_SetLightPhase1Green 060B                      init_fetch0 0596              _SetTimePhase1Green 05DC  
            _SetTimePhase2Green 05F4                     __pdataBANK0 0033              i1___awmod@dividend 0072  
              ??i1_DecodeNumber 0079             ?_SetTimePhase1Green 0070             ?_SetTimePhase2Green 0070  
                   __pbssCOMMON 007C                       ___latbits 0002                      ?_OffYellow 0070  
                 __pcstackBANK0 0020     __end_of_SetTimePhase1Yellow 062C     __end_of_SetTimePhase2Yellow 0621  
                     __pnvBANK0 004F                        ?_ScanLED 0070            ??_SetTimePhase1Green 0025  
          ??_SetTimePhase2Green 0070                        ?___awdiv 0025                        ?___awmod 0025  
             i1___awdiv@divisor 0070               i1___awdiv@counter 0075                   ?_DecodeNumber 0070  
                   ??i1___awdiv 0074                     ??i1___awmod 0074               interrupt_function 0004  
                      _PIE1bits 008C          ?i1_SetLightPhase1Green 0070                        _PIR1bits 000C  
                   ??_OffYellow 0070                  ??_DecodeNumber 002E                        _OnYellow 064D  
              __size_of_ScanLED 0057               i1___awmod@divisor 0070               i1___awmod@counter 0075  
              __size_of___awdiv 0069                __size_of___awmod 005B   __size_of_SetLightPhase1Yellow 000B  
 __size_of_SetLightPhase2Yellow 000B                        __ptext10 05E8                        __ptext11 060B  
                      __ptext20 0642                        __ptext12 02F2                        __ptext21 0529  
                      __ptext13 04D0                        __ptext22 064D                        __ptext14 040E  
                      __ptext23 0658                        __ptext15 0616                        __ptext16 05F4  
                      __ptext17 0621                        __ptext18 062C                        __ptext19 0637  
                 __size_of_main 00EB                   ??_CheckButton 0025   __size_ofi1_SetTimePhase1Green 000C  
                    _INTCONbits 000B                        init_ram0 059A    __size_of_SetLightPhase1Green 000B  
  __size_of_SetLightPhase2Green 000B                        intlevel1 0000            __end_of_DecodeNumber 02F2  
           __end_of_CheckButton 0596         ??i1_SetLightPhase1Green 0070     __size_of_SetTimePhase1Green 000C  
   __size_of_SetTimePhase2Green 000C    __size_of_SetTimePhase1Yellow 000B    __size_of_SetTimePhase2Yellow 000B  
